
out.elf:     file format elf32-tradlittlemips


Disassembly of section .config_BFC02FF0:

bfc02ff0 <__config_BFC02FF0>:
bfc02ff0:	ff ff fe fa                                         ....

Disassembly of section .config_BFC02FF4:

bfc02ff4 <__config_BFC02FF4>:
bfc02ff4:	d9 79 f8 ff                                         .y..

Disassembly of section .config_BFC02FF8:

bfc02ff8 <__config_BFC02FF8>:
bfc02ff8:	db ce 6c ff                                         ..l.

Disassembly of section .config_BFC02FFC:

bfc02ffc <__config_BFC02FFC>:
bfc02ffc:	ff ff ff 7e                                         ...~

Disassembly of section .reset:

bd001970 <_reset>:
bd001970:	0f40065e 	jal	bd001978 <_startup>
bd001974:	00000000 	nop

bd001978 <_startup>:
bd001978:	401a6000 	mfc0	k0,c0_status
bd00197c:	7f5a04c0 	ext	k0,k0,0x13,0x1
bd001980:	13400005 	beqz	k0,bd001998 <_no_nmi>
bd001984:	00000000 	nop
bd001988:	3c1a9d00 	lui	k0,0x9d00
bd00198c:	275a69a0 	addiu	k0,k0,27040
bd001990:	03400008 	jr	k0
bd001994:	00000000 	nop

bd001998 <_no_nmi>:
bd001998:	3c1da002 	lui	sp,0xa002
bd00199c:	27bdfff0 	addiu	sp,sp,-16
bd0019a0:	3c1ca000 	lui	gp,0xa000
bd0019a4:	279c7ff0 	addiu	gp,gp,32752
bd0019a8:	40096002 	mfc0	t1,c0_srsctl
bd0019ac:	01205820 	add	t3,t1,zero
bd0019b0:	7d2a1e80 	ext	t2,t1,0x1a,0x4
bd0019b4:	7d494984 	ins	t1,t2,0x6,0x4
bd0019b8:	40896002 	mtc0	t1,c0_srsctl
bd0019bc:	000000c0 	ehb
bd0019c0:	41dce000 	wrpgpr	gp,gp
bd0019c4:	408b6002 	mtc0	t3,c0_srsctl
bd0019c8:	000000c0 	ehb
bd0019cc:	3c089d00 	lui	t0,0x9d00
bd0019d0:	250869e8 	addiu	t0,t0,27112
bd0019d4:	0100f809 	jalr	t0
bd0019d8:	00000000 	nop

bd0019dc <_start_bss_init>:
bd0019dc:	3c08a000 	lui	t0,0xa000
bd0019e0:	25080000 	addiu	t0,t0,0
bd0019e4:	3c09a000 	lui	t1,0xa000
bd0019e8:	25290018 	addiu	t1,t1,24
bd0019ec:	10000003 	b	bd0019fc <_bss_check>
bd0019f0:	00000000 	nop

bd0019f4 <_bss_init>:
bd0019f4:	ad000000 	sw	zero,0(t0)
bd0019f8:	25080004 	addiu	t0,t0,4

bd0019fc <_bss_check>:
bd0019fc:	0109082b 	sltu	at,t0,t1
bd001a00:	1420fffc 	bnez	at,bd0019f4 <_bss_init>
bd001a04:	00000000 	nop
bd001a08:	3c089d00 	lui	t0,0x9d00
bd001a0c:	25086228 	addiu	t0,t0,25128
bd001a10:	0100f809 	jalr	t0
bd001a14:	00000000 	nop
bd001a18:	3c090000 	lui	t1,0x0
bd001a1c:	25290000 	addiu	t1,t1,0
bd001a20:	11200010 	beqz	t1,bd001a64 <_ramfunc_done>
bd001a24:	00000000 	nop
bd001a28:	3c090002 	lui	t1,0x2
bd001a2c:	25290000 	addiu	t1,t1,0
bd001a30:	3c0abf88 	lui	t2,0xbf88
bd001a34:	254a2010 	addiu	t2,t2,8208
bd001a38:	ad490000 	sw	t1,0(t2)
bd001a3c:	3c090002 	lui	t1,0x2
bd001a40:	25290000 	addiu	t1,t1,0
bd001a44:	3c0abf88 	lui	t2,0xbf88
bd001a48:	254a2020 	addiu	t2,t2,8224
bd001a4c:	ad490000 	sw	t1,0(t2)
bd001a50:	3c090002 	lui	t1,0x2
bd001a54:	25290000 	addiu	t1,t1,0
bd001a58:	3c0abf88 	lui	t2,0xbf88
bd001a5c:	254a2030 	addiu	t2,t2,8240
bd001a60:	ad490000 	sw	t1,0(t2)

bd001a64 <_ramfunc_done>:
bd001a64:	40804800 	mtc0	zero,c0_count
bd001a68:	240affff 	li	t2,-1
bd001a6c:	408a5800 	mtc0	t2,c0_compare
bd001a70:	3c080040 	lui	t0,0x40
bd001a74:	400a6000 	mfc0	t2,c0_status
bd001a78:	010a5025 	or	t2,t0,t2
bd001a7c:	408a6000 	mtc0	t2,c0_status
bd001a80:	3c099d00 	lui	t1,0x9d00
bd001a84:	25290000 	addiu	t1,t1,0
bd001a88:	000000c0 	ehb
bd001a8c:	40897801 	mtc0	t1,c0_ebase
bd001a90:	3c090000 	lui	t1,0x0
bd001a94:	25290001 	addiu	t1,t1,1
bd001a98:	240a0000 	li	t2,0
bd001a9c:	7d2a4944 	ins	t2,t1,0x5,0x5
bd001aa0:	408a6001 	mtc0	t2,c0_intctl
bd001aa4:	3c090080 	lui	t1,0x80
bd001aa8:	40896800 	mtc0	t1,c0_cause
bd001aac:	40088000 	mfc0	t0,c0_config
bd001ab0:	7d090580 	ext	t1,t0,0x16,0x1
bd001ab4:	00094c40 	sll	t1,t1,0x11
bd001ab8:	40086000 	mfc0	t0,c0_status
bd001abc:	3c010058 	lui	at,0x58
bd001ac0:	01014024 	and	t0,t0,at
bd001ac4:	01284025 	or	t0,t1,t0
bd001ac8:	40886000 	mtc0	t0,c0_status
bd001acc:	000000c0 	ehb
bd001ad0:	3c089d00 	lui	t0,0x9d00
bd001ad4:	250869f0 	addiu	t0,t0,27120
bd001ad8:	0100f809 	jalr	t0
bd001adc:	00000000 	nop
bd001ae0:	40086000 	mfc0	t0,c0_status
bd001ae4:	3c01ffbf 	lui	at,0xffbf
bd001ae8:	3421ffff 	ori	at,at,0xffff
bd001aec:	01014024 	and	t0,t0,at
bd001af0:	40886000 	mtc0	t0,c0_status
bd001af4:	30840000 	andi	a0,a0,0x0
bd001af8:	30a50000 	andi	a1,a1,0x0
bd001afc:	3c089d00 	lui	t0,0x9d00
bd001b00:	25086554 	addiu	t0,t0,25940
bd001b04:	01000008 	jr	t0
bd001b08:	00000000 	nop

Disassembly of section .bev_excpt:

bd001cf0 <_bev_exception>:
bd001cf0:	3c1a9d00 	lui	k0,0x9d00
bd001cf4:	275a65f8 	addiu	k0,k0,26104
bd001cf8:	03400008 	jr	k0
bd001cfc:	00000000 	nop

Disassembly of section .app_excpt:

9d000180 <_gen_exception>:
9d000180:	3c1a9d00 	lui	k0,0x9d00
9d000184:	275a5e04 	addiu	k0,k0,24068
9d000188:	03400008 	jr	k0
9d00018c:	00000000 	nop

Disassembly of section .vector_0:

9d000200 <__vector_dispatch_0>:
9d000200:	0b401145 	j	9d004514 <CoreTimerISR>
9d000204:	00000000 	nop

Disassembly of section .vector_1:

9d000220 <__vector_dispatch_1>:
9d000220:	0b4019a2 	j	9d006688 <_DefaultInterrupt>
9d000224:	00000000 	nop

Disassembly of section .vector_2:

9d000240 <__vector_dispatch_2>:
9d000240:	0b4019a2 	j	9d006688 <_DefaultInterrupt>
9d000244:	00000000 	nop

Disassembly of section .vector_3:

9d000260 <__vector_dispatch_3>:
9d000260:	0b401166 	j	9d004598 <Ext0ISR>
9d000264:	00000000 	nop

Disassembly of section .vector_4:

9d000280 <__vector_dispatch_4>:
9d000280:	0b4019a2 	j	9d006688 <_DefaultInterrupt>
9d000284:	00000000 	nop

Disassembly of section .vector_5:

9d0002a0 <__vector_dispatch_5>:
9d0002a0:	0b4019a2 	j	9d006688 <_DefaultInterrupt>
9d0002a4:	00000000 	nop

Disassembly of section .vector_6:

9d0002c0 <__vector_dispatch_6>:
9d0002c0:	0b4019a2 	j	9d006688 <_DefaultInterrupt>
9d0002c4:	00000000 	nop

Disassembly of section .vector_7:

9d0002e0 <__vector_dispatch_7>:
9d0002e0:	0b4019a2 	j	9d006688 <_DefaultInterrupt>
9d0002e4:	00000000 	nop

Disassembly of section .vector_8:

9d000300 <__vector_dispatch_8>:
9d000300:	0b4019a2 	j	9d006688 <_DefaultInterrupt>
9d000304:	00000000 	nop

Disassembly of section .vector_9:

9d000320 <__vector_dispatch_9>:
9d000320:	0b4019a2 	j	9d006688 <_DefaultInterrupt>
9d000324:	00000000 	nop

Disassembly of section .vector_10:

9d000340 <__vector_dispatch_10>:
9d000340:	0b4019a2 	j	9d006688 <_DefaultInterrupt>
9d000344:	00000000 	nop

Disassembly of section .vector_11:

9d000360 <__vector_dispatch_11>:
9d000360:	0b4019a2 	j	9d006688 <_DefaultInterrupt>
9d000364:	00000000 	nop

Disassembly of section .vector_12:

9d000380 <__vector_dispatch_12>:
9d000380:	0b4019a2 	j	9d006688 <_DefaultInterrupt>
9d000384:	00000000 	nop

Disassembly of section .vector_13:

9d0003a0 <__vector_dispatch_13>:
9d0003a0:	0b4019a2 	j	9d006688 <_DefaultInterrupt>
9d0003a4:	00000000 	nop

Disassembly of section .vector_14:

9d0003c0 <__vector_dispatch_14>:
9d0003c0:	0b4019a2 	j	9d006688 <_DefaultInterrupt>
9d0003c4:	00000000 	nop

Disassembly of section .vector_15:

9d0003e0 <__vector_dispatch_15>:
9d0003e0:	0b4019a2 	j	9d006688 <_DefaultInterrupt>
9d0003e4:	00000000 	nop

Disassembly of section .vector_16:

9d000400 <__vector_dispatch_16>:
9d000400:	0b4019a2 	j	9d006688 <_DefaultInterrupt>
9d000404:	00000000 	nop

Disassembly of section .vector_17:

9d000420 <__vector_dispatch_17>:
9d000420:	0b4019a2 	j	9d006688 <_DefaultInterrupt>
9d000424:	00000000 	nop

Disassembly of section .vector_18:

9d000440 <__vector_dispatch_18>:
9d000440:	0b4019a2 	j	9d006688 <_DefaultInterrupt>
9d000444:	00000000 	nop

Disassembly of section .vector_19:

9d000460 <__vector_dispatch_19>:
9d000460:	0b4019a2 	j	9d006688 <_DefaultInterrupt>
9d000464:	00000000 	nop

Disassembly of section .vector_20:

9d000480 <__vector_dispatch_20>:
9d000480:	0b4019a2 	j	9d006688 <_DefaultInterrupt>
9d000484:	00000000 	nop

Disassembly of section .vector_21:

9d0004a0 <__vector_dispatch_21>:
9d0004a0:	0b4019a2 	j	9d006688 <_DefaultInterrupt>
9d0004a4:	00000000 	nop

Disassembly of section .vector_22:

9d0004c0 <__vector_dispatch_22>:
9d0004c0:	0b4019a2 	j	9d006688 <_DefaultInterrupt>
9d0004c4:	00000000 	nop

Disassembly of section .vector_23:

9d0004e0 <__vector_dispatch_23>:
9d0004e0:	0b4019a2 	j	9d006688 <_DefaultInterrupt>
9d0004e4:	00000000 	nop

Disassembly of section .vector_24:

9d000500 <__vector_dispatch_24>:
9d000500:	0b4019a2 	j	9d006688 <_DefaultInterrupt>
9d000504:	00000000 	nop

Disassembly of section .vector_25:

9d000520 <__vector_dispatch_25>:
9d000520:	0b4019a2 	j	9d006688 <_DefaultInterrupt>
9d000524:	00000000 	nop

Disassembly of section .vector_26:

9d000540 <__vector_dispatch_26>:
9d000540:	0b4019a2 	j	9d006688 <_DefaultInterrupt>
9d000544:	00000000 	nop

Disassembly of section .vector_27:

9d000560 <__vector_dispatch_27>:
9d000560:	0b4019a2 	j	9d006688 <_DefaultInterrupt>
9d000564:	00000000 	nop

Disassembly of section .vector_28:

9d000580 <__vector_dispatch_28>:
9d000580:	0b4019a2 	j	9d006688 <_DefaultInterrupt>
9d000584:	00000000 	nop

Disassembly of section .vector_29:

9d0005a0 <__vector_dispatch_29>:
9d0005a0:	0b4019a2 	j	9d006688 <_DefaultInterrupt>
9d0005a4:	00000000 	nop

Disassembly of section .vector_30:

9d0005c0 <__vector_dispatch_30>:
9d0005c0:	0b4019a2 	j	9d006688 <_DefaultInterrupt>
9d0005c4:	00000000 	nop

Disassembly of section .vector_31:

9d0005e0 <__vector_dispatch_31>:
9d0005e0:	0b4019a2 	j	9d006688 <_DefaultInterrupt>
9d0005e4:	00000000 	nop

Disassembly of section .vector_32:

9d000600 <__vector_dispatch_32>:
9d000600:	0b4019a2 	j	9d006688 <_DefaultInterrupt>
9d000604:	00000000 	nop

Disassembly of section .vector_33:

9d000620 <__vector_dispatch_33>:
9d000620:	0b4019a2 	j	9d006688 <_DefaultInterrupt>
9d000624:	00000000 	nop

Disassembly of section .vector_34:

9d000640 <__vector_dispatch_34>:
9d000640:	0b4019a2 	j	9d006688 <_DefaultInterrupt>
9d000644:	00000000 	nop

Disassembly of section .vector_35:

9d000660 <__vector_dispatch_35>:
9d000660:	0b4019a2 	j	9d006688 <_DefaultInterrupt>
9d000664:	00000000 	nop

Disassembly of section .vector_36:

9d000680 <__vector_dispatch_36>:
9d000680:	0b4019a2 	j	9d006688 <_DefaultInterrupt>
9d000684:	00000000 	nop

Disassembly of section .vector_37:

9d0006a0 <__vector_dispatch_37>:
9d0006a0:	0b4019a2 	j	9d006688 <_DefaultInterrupt>
9d0006a4:	00000000 	nop

Disassembly of section .vector_38:

9d0006c0 <__vector_dispatch_38>:
9d0006c0:	0b4019a2 	j	9d006688 <_DefaultInterrupt>
9d0006c4:	00000000 	nop

Disassembly of section .vector_39:

9d0006e0 <__vector_dispatch_39>:
9d0006e0:	0b4019a2 	j	9d006688 <_DefaultInterrupt>
9d0006e4:	00000000 	nop

Disassembly of section .vector_40:

9d000700 <__vector_dispatch_40>:
9d000700:	0b4019a2 	j	9d006688 <_DefaultInterrupt>
9d000704:	00000000 	nop

Disassembly of section .vector_41:

9d000720 <__vector_dispatch_41>:
9d000720:	0b4019a2 	j	9d006688 <_DefaultInterrupt>
9d000724:	00000000 	nop

Disassembly of section .vector_42:

9d000740 <__vector_dispatch_42>:
9d000740:	0b4019a2 	j	9d006688 <_DefaultInterrupt>
9d000744:	00000000 	nop

Disassembly of section .vector_43:

9d000760 <__vector_dispatch_43>:
9d000760:	0b4019a2 	j	9d006688 <_DefaultInterrupt>
9d000764:	00000000 	nop

Disassembly of section .vector_44:

9d000780 <__vector_dispatch_44>:
9d000780:	0b4019a2 	j	9d006688 <_DefaultInterrupt>
9d000784:	00000000 	nop

Disassembly of section .vector_45:

9d0007a0 <__vector_dispatch_45>:
9d0007a0:	0b4019a2 	j	9d006688 <_DefaultInterrupt>
9d0007a4:	00000000 	nop

Disassembly of section .vector_46:

9d0007c0 <__vector_dispatch_46>:
9d0007c0:	0b4019a2 	j	9d006688 <_DefaultInterrupt>
9d0007c4:	00000000 	nop

Disassembly of section .vector_47:

9d0007e0 <__vector_dispatch_47>:
9d0007e0:	0b4019a2 	j	9d006688 <_DefaultInterrupt>
9d0007e4:	00000000 	nop

Disassembly of section .vector_48:

9d000800 <__vector_dispatch_48>:
9d000800:	0b4019a2 	j	9d006688 <_DefaultInterrupt>
9d000804:	00000000 	nop

Disassembly of section .vector_49:

9d000820 <__vector_dispatch_49>:
9d000820:	0b4019a2 	j	9d006688 <_DefaultInterrupt>
9d000824:	00000000 	nop

Disassembly of section .vector_50:

9d000840 <__vector_dispatch_50>:
9d000840:	0b4019a2 	j	9d006688 <_DefaultInterrupt>
9d000844:	00000000 	nop

Disassembly of section .vector_51:

9d000860 <__vector_dispatch_51>:
9d000860:	0b4019a2 	j	9d006688 <_DefaultInterrupt>
9d000864:	00000000 	nop

Disassembly of section .rodata:

9d001e00 <.rodata>:
9d001e00:	656d6974 	0x656d6974
9d001e04:	203a3120 	addi	k0,at,12576
9d001e08:	0a0d6425 	j	98359094 <_bmxdudba_address+0x98339094>
9d001e0c:	00000000 	nop
9d001e10:	6f636573 	0x6f636573
9d001e14:	2073646e 	addi	s3,v1,25710
9d001e18:	70616c65 	0x70616c65
9d001e1c:	3a646573 	xori	a0,s3,0x6573
9d001e20:	20662520 	addi	a2,v1,9504
9d001e24:	74200a0d 	jalx	90802834 <_bmxdudba_address+0x907e2834>
9d001e28:	20656d69 	addi	a1,v1,28009
9d001e2c:	25203a31 	addiu	zero,t1,14897
9d001e30:	0a0d2064 	j	98348190 <_bmxdudba_address+0x98328190>
9d001e34:	6d697420 	0x6d697420
9d001e38:	3a322065 	xori	s2,s1,0x2065
9d001e3c:	0d206425 	jal	94819094 <_bmxdudba_address+0x947f9094>
9d001e40:	0000000a 	movz	zero,zero,zero
	...
9d001e4c:	418312d0 	0x418312d0
9d001e50:	00464e49 	0x464e49
9d001e54:	00666e69 	0x666e69
9d001e58:	004e414e 	0x4e414e
9d001e5c:	006e616e 	0x6e616e
9d001e60:	00000000 	nop
9d001e64:	3ff00000 	0x3ff00000
9d001e68:	00000000 	nop
9d001e6c:	40240000 	0x40240000
9d001e70:	00000000 	nop
9d001e74:	43500000 	c0	0x1500000
9d001e78:	00000000 	nop
9d001e7c:	40140000 	mfc0	s4,c0_index
9d001e80:	6c696e28 	0x6c696e28
9d001e84:	00000029 	0x29
9d001e88:	00000000 	nop
9d001e8c:	43e00000 	c0	0x1e00000
9d001e90:	00000000 	nop
9d001e94:	c3e00000 	ll	zero,0(ra)
9d001e98:	f0000000 	0xf0000000
9d001e9c:	341fffff 	li	ra,0xffff
9d001ea0:	00000000 	nop
9d001ea4:	07f00000 	bltzal	ra,9d001ea8 <__vector_dispatch_51+0x1648>
9d001ea8:	00000000 	nop
9d001eac:	7fe00000 	ext	zero,ra,0x0,0x1
9d001eb0:	00000000 	nop
9d001eb4:	03600000 	0x3600000

Disassembly of section ._debug_exception:

bfc00480 <__DbgExecReturn>:
bfc00480:	409bf800 	mtc0	k1,c0_desave
bfc00484:	000000c0 	ehb
bfc00488:	3c1b9d00 	lui	k1,0x9d00
bfc0048c:	277b66d0 	addiu	k1,k1,26320
bfc00490:	13600002 	beqz	k1,bfc0049c <__DbgExecReturn+0x1c>
bfc00494:	00000000 	nop
bfc00498:	409bc000 	mtc0	k1,c0_depc
bfc0049c:	401bf800 	mfc0	k1,c0_desave
bfc004a0:	000000c0 	ehb
bfc004a4:	4200001f 	deret
bfc004a8:	00000000 	nop

Disassembly of section .text.__fmt_fp:

9d001eb8 <__fmt_fp>:
9d001eb8:	27bdff68 	addiu	sp,sp,-152
9d001ebc:	afa700a4 	sw	a3,164(sp)
9d001ec0:	8ca20000 	lw	v0,0(a1)
9d001ec4:	afb50084 	sw	s5,132(sp)
9d001ec8:	8cd50000 	lw	s5,0(a2)
9d001ecc:	afa20020 	sw	v0,32(sp)
9d001ed0:	8ca20008 	lw	v0,8(a1)
9d001ed4:	afb60088 	sw	s6,136(sp)
9d001ed8:	afb00070 	sw	s0,112(sp)
9d001edc:	afa20024 	sw	v0,36(sp)
9d001ee0:	8ca20010 	lw	v0,16(a1)
9d001ee4:	afa40098 	sw	a0,152(sp)
9d001ee8:	afa5009c 	sw	a1,156(sp)
9d001eec:	afa20040 	sw	v0,64(sp)
9d001ef0:	8cc20004 	lw	v0,4(a2)
9d001ef4:	8cb00004 	lw	s0,4(a1)
9d001ef8:	8cb6000c 	lw	s6,12(a1)
9d001efc:	afa2001c 	sw	v0,28(sp)
9d001f00:	8fa2001c 	lw	v0,28(sp)
9d001f04:	00003025 	move	a2,zero
9d001f08:	00003825 	move	a3,zero
9d001f0c:	02a02025 	move	a0,s5
9d001f10:	00402825 	move	a1,v0
9d001f14:	afbf0094 	sw	ra,148(sp)
9d001f18:	afbe0090 	sw	s8,144(sp)
9d001f1c:	afb7008c 	sw	s7,140(sp)
9d001f20:	afb40080 	sw	s4,128(sp)
9d001f24:	afb3007c 	sw	s3,124(sp)
9d001f28:	afb20078 	sw	s2,120(sp)
9d001f2c:	0f4015bd 	jal	9d0056f4 <dpcmplt>
9d001f30:	afb10074 	sw	s1,116(sp)
9d001f34:	0440000e 	bltz	v0,9d001f70 <__fmt_fp+0xb8>
9d001f38:	8fa20020 	lw	v0,32(sp)
9d001f3c:	30420004 	andi	v0,v0,0x4
9d001f40:	14400010 	bnez	v0,9d001f84 <__fmt_fp+0xcc>
9d001f44:	2402002b 	li	v0,43
9d001f48:	8fa20020 	lw	v0,32(sp)
9d001f4c:	30420008 	andi	v0,v0,0x8
9d001f50:	afa20028 	sw	v0,40(sp)
9d001f54:	8fa20024 	lw	v0,36(sp)
9d001f58:	afa20018 	sw	v0,24(sp)
9d001f5c:	8fa20028 	lw	v0,40(sp)
9d001f60:	1040000f 	beqz	v0,9d001fa0 <__fmt_fp+0xe8>
9d001f64:	8fa30028 	lw	v1,40(sp)
9d001f68:	10000006 	b	9d001f84 <__fmt_fp+0xcc>
9d001f6c:	24020020 	li	v0,32
9d001f70:	8fa3001c 	lw	v1,28(sp)
9d001f74:	3c028000 	lui	v0,0x8000
9d001f78:	00431026 	xor	v0,v0,v1
9d001f7c:	afa2001c 	sw	v0,28(sp)
9d001f80:	2402002d 	li	v0,45
9d001f84:	a2c20000 	sb	v0,0(s6)
9d001f88:	8fa20024 	lw	v0,36(sp)
9d001f8c:	2442ffff 	addiu	v0,v0,-1
9d001f90:	afa20018 	sw	v0,24(sp)
9d001f94:	24020001 	li	v0,1
9d001f98:	afa20028 	sw	v0,40(sp)
9d001f9c:	8fa30028 	lw	v1,40(sp)
9d001fa0:	8fa2001c 	lw	v0,28(sp)
9d001fa4:	02c31821 	addu	v1,s6,v1
9d001fa8:	7c42f000 	ext	v0,v0,0x0,0x1f
9d001fac:	16a00024 	bnez	s5,9d002040 <__fmt_fp+0x188>
9d001fb0:	afa3002c 	sw	v1,44(sp)
9d001fb4:	3c037ff0 	lui	v1,0x7ff0
9d001fb8:	14430022 	bne	v0,v1,9d002044 <__fmt_fp+0x18c>
9d001fbc:	3c047ff0 	lui	a0,0x7ff0
9d001fc0:	8fa200a4 	lw	v0,164(sp)
9d001fc4:	3c109d00 	lui	s0,0x9d00
9d001fc8:	2442ffbf 	addiu	v0,v0,-65
9d001fcc:	2c42001a 	sltiu	v0,v0,26
9d001fd0:	10400003 	beqz	v0,9d001fe0 <__fmt_fp+0x128>
9d001fd4:	26051e54 	addiu	a1,s0,7764
9d001fd8:	3c059d00 	lui	a1,0x9d00
9d001fdc:	24a51e50 	addiu	a1,a1,7760
9d001fe0:	0f401a18 	jal	9d006860 <strcpy>
9d001fe4:	8fa4002c 	lw	a0,44(sp)
9d001fe8:	26041e54 	addiu	a0,s0,7764
9d001fec:	0f401a74 	jal	9d0069d0 <strlen>
9d001ff0:	00000000 	nop
9d001ff4:	8fa30020 	lw	v1,32(sp)
9d001ff8:	8fa70024 	lw	a3,36(sp)
9d001ffc:	8fa40098 	lw	a0,152(sp)
9d002000:	afa30010 	sw	v1,16(sp)
9d002004:	02c02825 	move	a1,s6
9d002008:	0f40164a 	jal	9d005928 <__pad>
9d00200c:	00403025 	move	a2,v0
9d002010:	8fbf0094 	lw	ra,148(sp)
9d002014:	8fbe0090 	lw	s8,144(sp)
9d002018:	8fb7008c 	lw	s7,140(sp)
9d00201c:	8fb60088 	lw	s6,136(sp)
9d002020:	8fb50084 	lw	s5,132(sp)
9d002024:	8fb40080 	lw	s4,128(sp)
9d002028:	8fb3007c 	lw	s3,124(sp)
9d00202c:	8fb20078 	lw	s2,120(sp)
9d002030:	8fb10074 	lw	s1,116(sp)
9d002034:	8fb00070 	lw	s0,112(sp)
9d002038:	03e00008 	jr	ra
9d00203c:	27bd0098 	addiu	sp,sp,152
9d002040:	3c047ff0 	lui	a0,0x7ff0
9d002044:	24830001 	addiu	v1,a0,1
9d002048:	0043182b 	sltu	v1,v0,v1
9d00204c:	50600006 	beqzl	v1,9d002068 <__fmt_fp+0x1b0>
9d002050:	8fa200a4 	lw	v0,164(sp)
9d002054:	1444000f 	bne	v0,a0,9d002094 <__fmt_fp+0x1dc>
9d002058:	8fa2001c 	lw	v0,28(sp)
9d00205c:	12a0000e 	beqz	s5,9d002098 <__fmt_fp+0x1e0>
9d002060:	00003025 	move	a2,zero
9d002064:	8fa200a4 	lw	v0,164(sp)
9d002068:	3c109d00 	lui	s0,0x9d00
9d00206c:	2442ffbf 	addiu	v0,v0,-65
9d002070:	2c42001a 	sltiu	v0,v0,26
9d002074:	10400003 	beqz	v0,9d002084 <__fmt_fp+0x1cc>
9d002078:	26051e5c 	addiu	a1,s0,7772
9d00207c:	3c059d00 	lui	a1,0x9d00
9d002080:	24a51e58 	addiu	a1,a1,7768
9d002084:	0f401a18 	jal	9d006860 <strcpy>
9d002088:	8fa4002c 	lw	a0,44(sp)
9d00208c:	1000ffd7 	b	9d001fec <__fmt_fp+0x134>
9d002090:	26041e5c 	addiu	a0,s0,7772
9d002094:	00003025 	move	a2,zero
9d002098:	00003825 	move	a3,zero
9d00209c:	02a02025 	move	a0,s5
9d0020a0:	0f401572 	jal	9d0055c8 <__eqdf2>
9d0020a4:	00402825 	move	a1,v0
9d0020a8:	3c139d00 	lui	s3,0x9d00
9d0020ac:	3c039d00 	lui	v1,0x9d00
9d0020b0:	afa30038 	sw	v1,56(sp)
9d0020b4:	8e711e60 	lw	s1,7776(s3)
9d0020b8:	8e721e64 	lw	s2,7780(s3)
9d0020bc:	14400036 	bnez	v0,9d002198 <__fmt_fp+0x2e0>
9d0020c0:	0000b825 	move	s7,zero
9d0020c4:	0f401a45 	jal	9d006914 <tolower>
9d0020c8:	8fa400a4 	lw	a0,164(sp)
9d0020cc:	7c021420 	seb	v0,v0
9d0020d0:	afa20030 	sw	v0,48(sp)
9d0020d4:	0600019a 	bltz	s0,9d002740 <__fmt_fp+0x888>
9d0020d8:	24020067 	li	v0,103
9d0020dc:	8fbe0030 	lw	s8,48(sp)
9d0020e0:	17c200c5 	bne	s8,v0,9d0023f8 <__fmt_fp+0x540>
9d0020e4:	24020066 	li	v0,102
9d0020e8:	52000001 	beqzl	s0,9d0020f0 <__fmt_fp+0x238>
9d0020ec:	24100001 	li	s0,1
9d0020f0:	2ae2fffc 	slti	v0,s7,-4
9d0020f4:	144000cb 	bnez	v0,9d002424 <__fmt_fp+0x56c>
9d0020f8:	241e0065 	li	s8,101
9d0020fc:	02f0102a 	slt	v0,s7,s0
9d002100:	144000b9 	bnez	v0,9d0023e8 <__fmt_fp+0x530>
9d002104:	8fa20038 	lw	v0,56(sp)
9d002108:	100000c7 	b	9d002428 <__fmt_fp+0x570>
9d00210c:	00000000 	nop
9d002110:	26f70001 	addiu	s7,s7,1
9d002114:	03c08825 	move	s1,s8
9d002118:	02809025 	move	s2,s4
9d00211c:	01003025 	move	a2,t0
9d002120:	01203825 	move	a3,t1
9d002124:	02202025 	move	a0,s1
9d002128:	02402825 	move	a1,s2
9d00212c:	afa80030 	sw	t0,48(sp)
9d002130:	0f40122e 	jal	9d0048b8 <__muldf3>
9d002134:	afa90034 	sw	t1,52(sp)
9d002138:	0040f025 	move	s8,v0
9d00213c:	8fa2001c 	lw	v0,28(sp)
9d002140:	02a03025 	move	a2,s5
9d002144:	03c02025 	move	a0,s8
9d002148:	00403825 	move	a3,v0
9d00214c:	00602825 	move	a1,v1
9d002150:	0f401572 	jal	9d0055c8 <__eqdf2>
9d002154:	0060a025 	move	s4,v1
9d002158:	8fa80030 	lw	t0,48(sp)
9d00215c:	1840ffec 	blez	v0,9d002110 <__fmt_fp+0x258>
9d002160:	8fa90034 	lw	t1,52(sp)
9d002164:	3c029d00 	lui	v0,0x9d00
9d002168:	8c5e1e70 	lw	s8,7792(v0)
9d00216c:	8c421e74 	lw	v0,7796(v0)
9d002170:	0000a025 	move	s4,zero
9d002174:	afbe0050 	sw	s8,80(sp)
9d002178:	afa20030 	sw	v0,48(sp)
9d00217c:	afa20058 	sw	v0,88(sp)
9d002180:	8fa20038 	lw	v0,56(sp)
9d002184:	8c431e6c 	lw	v1,7788(v0)
9d002188:	8c421e68 	lw	v0,7784(v0)
9d00218c:	afa3004c 	sw	v1,76(sp)
9d002190:	10000021 	b	9d002218 <__fmt_fp+0x360>
9d002194:	afa20048 	sw	v0,72(sp)
9d002198:	3c029d00 	lui	v0,0x9d00
9d00219c:	8c481e68 	lw	t0,7784(v0)
9d0021a0:	1000ffde 	b	9d00211c <__fmt_fp+0x264>
9d0021a4:	8c491e6c 	lw	t1,7788(v0)
9d0021a8:	10400014 	beqz	v0,9d0021fc <__fmt_fp+0x344>
9d0021ac:	8fa60048 	lw	a2,72(sp)
9d0021b0:	16800013 	bnez	s4,9d002200 <__fmt_fp+0x348>
9d0021b4:	8fa7004c 	lw	a3,76(sp)
9d0021b8:	8fa2001c 	lw	v0,28(sp)
9d0021bc:	8fa70030 	lw	a3,48(sp)
9d0021c0:	02a02025 	move	a0,s5
9d0021c4:	03c03025 	move	a2,s8
9d0021c8:	0f40122e 	jal	9d0048b8 <__muldf3>
9d0021cc:	00402825 	move	a1,v0
9d0021d0:	8fa60050 	lw	a2,80(sp)
9d0021d4:	8fa70058 	lw	a3,88(sp)
9d0021d8:	02202025 	move	a0,s1
9d0021dc:	02402825 	move	a1,s2
9d0021e0:	0040a825 	move	s5,v0
9d0021e4:	0f40122e 	jal	9d0048b8 <__muldf3>
9d0021e8:	afa3001c 	sw	v1,28(sp)
9d0021ec:	00408825 	move	s1,v0
9d0021f0:	00609025 	move	s2,v1
9d0021f4:	24140001 	li	s4,1
9d0021f8:	8fa60048 	lw	a2,72(sp)
9d0021fc:	8fa7004c 	lw	a3,76(sp)
9d002200:	02202025 	move	a0,s1
9d002204:	0f400d12 	jal	9d003448 <__divdf3>
9d002208:	02402825 	move	a1,s2
9d00220c:	00408825 	move	s1,v0
9d002210:	00609025 	move	s2,v1
9d002214:	26f7ffff 	addiu	s7,s7,-1
9d002218:	8fa2001c 	lw	v0,28(sp)
9d00221c:	02203025 	move	a2,s1
9d002220:	02403825 	move	a3,s2
9d002224:	02a02025 	move	a0,s5
9d002228:	0f4015bd 	jal	9d0056f4 <dpcmplt>
9d00222c:	00402825 	move	a1,v0
9d002230:	0442ffdd 	bltzl	v0,9d0021a8 <__fmt_fp+0x2f0>
9d002234:	2ae2fed4 	slti	v0,s7,-300
9d002238:	1000ffa2 	b	9d0020c4 <__fmt_fp+0x20c>
9d00223c:	00000000 	nop
9d002240:	02203025 	move	a2,s1
9d002244:	02403825 	move	a3,s2
9d002248:	02602025 	move	a0,s3
9d00224c:	afac0060 	sw	t4,96(sp)
9d002250:	afab0044 	sw	t3,68(sp)
9d002254:	0f400d12 	jal	9d003448 <__divdf3>
9d002258:	afaa0058 	sw	t2,88(sp)
9d00225c:	00402025 	move	a0,v0
9d002260:	0f401608 	jal	9d005820 <dpfloor>
9d002264:	00602825 	move	a1,v1
9d002268:	00602825 	move	a1,v1
9d00226c:	00402025 	move	a0,v0
9d002270:	afa30054 	sw	v1,84(sp)
9d002274:	0f401866 	jal	9d006198 <__fixdfsi>
9d002278:	afa20050 	sw	v0,80(sp)
9d00227c:	8fa30048 	lw	v1,72(sp)
9d002280:	8fa80050 	lw	t0,80(sp)
9d002284:	8fa90054 	lw	t1,84(sp)
9d002288:	00621825 	or	v1,v1,v0
9d00228c:	8faa0058 	lw	t2,88(sp)
9d002290:	8fab0044 	lw	t3,68(sp)
9d002294:	1460000b 	bnez	v1,9d0022c4 <__fmt_fp+0x40c>
9d002298:	8fac0060 	lw	t4,96(sp)
9d00229c:	8fa40030 	lw	a0,48(sp)
9d0022a0:	24030067 	li	v1,103
9d0022a4:	14830007 	bne	a0,v1,9d0022c4 <__fmt_fp+0x40c>
9d0022a8:	00000000 	nop
9d0022ac:	06a00021 	bltz	s5,9d002334 <__fmt_fp+0x47c>
9d0022b0:	258b0001 	addiu	t3,t4,1
9d0022b4:	02801825 	move	v1,s4
9d0022b8:	02d42021 	addu	a0,s6,s4
9d0022bc:	10000011 	b	9d002304 <__fmt_fp+0x44c>
9d0022c0:	01805825 	move	t3,t4
9d0022c4:	1600fffc 	bnez	s0,9d0022b8 <__fmt_fp+0x400>
9d0022c8:	02801825 	move	v1,s4
9d0022cc:	06a3fffb 	bgezl	s5,9d0022bc <__fmt_fp+0x404>
9d0022d0:	02d42021 	addu	a0,s6,s4
9d0022d4:	8fa30018 	lw	v1,24(sp)
9d0022d8:	02cb5821 	addu	t3,s6,t3
9d0022dc:	26940001 	addiu	s4,s4,1
9d0022e0:	2463ffff 	addiu	v1,v1,-1
9d0022e4:	afa30018 	sw	v1,24(sp)
9d0022e8:	2403002e 	li	v1,46
9d0022ec:	a1630000 	sb	v1,0(t3)
9d0022f0:	1000fff0 	b	9d0022b4 <__fmt_fp+0x3fc>
9d0022f4:	24100001 	li	s0,1
9d0022f8:	a0850000 	sb	a1,0(a0)
9d0022fc:	256bffff 	addiu	t3,t3,-1
9d002300:	24840001 	addiu	a0,a0,1
9d002304:	5560fffc 	bnezl	t3,9d0022f8 <__fmt_fp+0x440>
9d002308:	24050030 	li	a1,48
9d00230c:	8fa40018 	lw	a0,24(sp)
9d002310:	26940001 	addiu	s4,s4,1
9d002314:	02c31821 	addu	v1,s6,v1
9d002318:	2484ffff 	addiu	a0,a0,-1
9d00231c:	008c2023 	subu	a0,a0,t4
9d002320:	028ca021 	addu	s4,s4,t4
9d002324:	24420030 	addiu	v0,v0,48
9d002328:	006c6021 	addu	t4,v1,t4
9d00232c:	afa40018 	sw	a0,24(sp)
9d002330:	a1820000 	sb	v0,0(t4)
9d002334:	3c0c8000 	lui	t4,0x8000
9d002338:	018a2026 	xor	a0,t4,t2
9d00233c:	02203025 	move	a2,s1
9d002340:	02403825 	move	a3,s2
9d002344:	01202825 	move	a1,t1
9d002348:	afb30010 	sw	s3,16(sp)
9d00234c:	afa40014 	sw	a0,20(sp)
9d002350:	01002025 	move	a0,t0
9d002354:	0f4009d5 	jal	9d002754 <fma>
9d002358:	afab0058 	sw	t3,88(sp)
9d00235c:	8fa60038 	lw	a2,56(sp)
9d002360:	8fa7003c 	lw	a3,60(sp)
9d002364:	3c0c8000 	lui	t4,0x8000
9d002368:	01835026 	xor	t2,t4,v1
9d00236c:	02202025 	move	a0,s1
9d002370:	02402825 	move	a1,s2
9d002374:	afaa0050 	sw	t2,80(sp)
9d002378:	0f400d12 	jal	9d003448 <__divdf3>
9d00237c:	00409825 	move	s3,v0
9d002380:	8fab0058 	lw	t3,88(sp)
9d002384:	00408825 	move	s1,v0
9d002388:	00609025 	move	s2,v1
9d00238c:	26b5ffff 	addiu	s5,s5,-1
9d002390:	01606025 	move	t4,t3
9d002394:	10000097 	b	9d0025f4 <__fmt_fp+0x73c>
9d002398:	8faa0050 	lw	t2,80(sp)
9d00239c:	02e7001a 	div	zero,s7,a3
9d0023a0:	00e001f4 	teq	a3,zero,0x7
9d0023a4:	02c34021 	addu	t0,s6,v1
9d0023a8:	00601025 	move	v0,v1
9d0023ac:	00001810 	mfhi	v1
9d0023b0:	24630030 	addiu	v1,v1,48
9d0023b4:	a1030000 	sb	v1,0(t0)
9d0023b8:	8fa30018 	lw	v1,24(sp)
9d0023bc:	0000b812 	mflo	s7
9d0023c0:	2463ffff 	addiu	v1,v1,-1
9d0023c4:	100000ae 	b	9d002680 <__fmt_fp+0x7c8>
9d0023c8:	afa30018 	sw	v1,24(sp)
9d0023cc:	80640000 	lb	a0,0(v1)
9d0023d0:	8fa30018 	lw	v1,24(sp)
9d0023d4:	00621821 	addu	v1,v1,v0
9d0023d8:	02c31821 	addu	v1,s6,v1
9d0023dc:	a0640000 	sb	a0,0(v1)
9d0023e0:	100000ca 	b	9d00270c <__fmt_fp+0x854>
9d0023e4:	2442ffff 	addiu	v0,v0,-1
9d0023e8:	06e1000a 	bgez	s7,9d002414 <__fmt_fp+0x55c>
9d0023ec:	8fa30030 	lw	v1,48(sp)
9d0023f0:	241e0066 	li	s8,102
9d0023f4:	24020066 	li	v0,102
9d0023f8:	17c2000a 	bne	s8,v0,9d002424 <__fmt_fp+0x56c>
9d0023fc:	26100001 	addiu	s0,s0,1
9d002400:	06e10004 	bgez	s7,9d002414 <__fmt_fp+0x55c>
9d002404:	8fa30030 	lw	v1,48(sp)
9d002408:	8e711e60 	lw	s1,7776(s3)
9d00240c:	8e721e64 	lw	s2,7780(s3)
9d002410:	0000b825 	move	s7,zero
9d002414:	24020067 	li	v0,103
9d002418:	10620002 	beq	v1,v0,9d002424 <__fmt_fp+0x56c>
9d00241c:	241e0066 	li	s8,102
9d002420:	02178021 	addu	s0,s0,s7
9d002424:	8fa20038 	lw	v0,56(sp)
9d002428:	8fb3001c 	lw	s3,28(sp)
9d00242c:	02204825 	move	t1,s1
9d002430:	8c431e6c 	lw	v1,7788(v0)
9d002434:	8c421e68 	lw	v0,7784(v0)
9d002438:	02404025 	move	t0,s2
9d00243c:	02a05025 	move	t2,s5
9d002440:	00006025 	move	t4,zero
9d002444:	afa20050 	sw	v0,80(sp)
9d002448:	afa30054 	sw	v1,84(sp)
9d00244c:	01203025 	move	a2,t1
9d002450:	01003825 	move	a3,t0
9d002454:	01402025 	move	a0,t2
9d002458:	02602825 	move	a1,s3
9d00245c:	afac0068 	sw	t4,104(sp)
9d002460:	afa90060 	sw	t1,96(sp)
9d002464:	afa80064 	sw	t0,100(sp)
9d002468:	0f400d12 	jal	9d003448 <__divdf3>
9d00246c:	afaa0044 	sw	t2,68(sp)
9d002470:	00402025 	move	a0,v0
9d002474:	0f401608 	jal	9d005820 <dpfloor>
9d002478:	00602825 	move	a1,v1
9d00247c:	00602825 	move	a1,v1
9d002480:	00402025 	move	a0,v0
9d002484:	afa3005c 	sw	v1,92(sp)
9d002488:	0f401866 	jal	9d006198 <__fixdfsi>
9d00248c:	afa20058 	sw	v0,88(sp)
9d002490:	8faa0058 	lw	t2,88(sp)
9d002494:	8fad0044 	lw	t5,68(sp)
9d002498:	8fa80064 	lw	t0,100(sp)
9d00249c:	8fa90060 	lw	t1,96(sp)
9d0024a0:	8fab005c 	lw	t3,92(sp)
9d0024a4:	0260a025 	move	s4,s3
9d0024a8:	3c138000 	lui	s3,0x8000
9d0024ac:	02742026 	xor	a0,s3,s4
9d0024b0:	01203025 	move	a2,t1
9d0024b4:	01003825 	move	a3,t0
9d0024b8:	01602825 	move	a1,t3
9d0024bc:	afad0010 	sw	t5,16(sp)
9d0024c0:	afa40014 	sw	a0,20(sp)
9d0024c4:	01402025 	move	a0,t2
9d0024c8:	afa80044 	sw	t0,68(sp)
9d0024cc:	0f4009d5 	jal	9d002754 <fma>
9d0024d0:	afa20048 	sw	v0,72(sp)
9d0024d4:	8fa90060 	lw	t1,96(sp)
9d0024d8:	8fa80044 	lw	t0,68(sp)
9d0024dc:	8fa60050 	lw	a2,80(sp)
9d0024e0:	8fa70054 	lw	a3,84(sp)
9d0024e4:	01202025 	move	a0,t1
9d0024e8:	01002825 	move	a1,t0
9d0024ec:	0040a025 	move	s4,v0
9d0024f0:	afa20058 	sw	v0,88(sp)
9d0024f4:	0f400d12 	jal	9d003448 <__divdf3>
9d0024f8:	02639826 	xor	s3,s3,v1
9d0024fc:	8fac0068 	lw	t4,104(sp)
9d002500:	00404825 	move	t1,v0
9d002504:	00604025 	move	t0,v1
9d002508:	258c0001 	addiu	t4,t4,1
9d00250c:	160cffcf 	bne	s0,t4,9d00244c <__fmt_fp+0x594>
9d002510:	8faa0058 	lw	t2,88(sp)
9d002514:	3c029d00 	lui	v0,0x9d00
9d002518:	8c461e78 	lw	a2,7800(v0)
9d00251c:	8c471e7c 	lw	a3,7804(v0)
9d002520:	01202025 	move	a0,t1
9d002524:	0f40122e 	jal	9d0048b8 <__muldf3>
9d002528:	00602825 	move	a1,v1
9d00252c:	00403025 	move	a2,v0
9d002530:	00603825 	move	a3,v1
9d002534:	02802025 	move	a0,s4
9d002538:	02602825 	move	a1,s3
9d00253c:	afa20050 	sw	v0,80(sp)
9d002540:	0f4015bd 	jal	9d0056f4 <dpcmplt>
9d002544:	afa30054 	sw	v1,84(sp)
9d002548:	04400010 	bltz	v0,9d00258c <__fmt_fp+0x6d4>
9d00254c:	00004025 	move	t0,zero
9d002550:	8fa80050 	lw	t0,80(sp)
9d002554:	8fa90054 	lw	t1,84(sp)
9d002558:	02802025 	move	a0,s4
9d00255c:	01003025 	move	a2,t0
9d002560:	01203825 	move	a3,t1
9d002564:	0f401572 	jal	9d0055c8 <__eqdf2>
9d002568:	02602825 	move	a1,s3
9d00256c:	8fa80050 	lw	t0,80(sp)
9d002570:	14400007 	bnez	v0,9d002590 <__fmt_fp+0x6d8>
9d002574:	8fa90054 	lw	t1,84(sp)
9d002578:	8fa20048 	lw	v0,72(sp)
9d00257c:	30420001 	andi	v0,v0,0x1
9d002580:	14400004 	bnez	v0,9d002594 <__fmt_fp+0x6dc>
9d002584:	8fa2001c 	lw	v0,28(sp)
9d002588:	00004025 	move	t0,zero
9d00258c:	00004825 	move	t1,zero
9d002590:	8fa2001c 	lw	v0,28(sp)
9d002594:	02a02025 	move	a0,s5
9d002598:	01003025 	move	a2,t0
9d00259c:	01203825 	move	a3,t1
9d0025a0:	0f400e42 	jal	9d003908 <__adddf3>
9d0025a4:	00402825 	move	a1,v0
9d0025a8:	3bd50065 	xori	s5,s8,0x65
9d0025ac:	00409825 	move	s3,v0
9d0025b0:	02e01025 	move	v0,s7
9d0025b4:	0015100a 	movz	v0,zero,s5
9d0025b8:	0040a825 	move	s5,v0
9d0025bc:	00501023 	subu	v0,v0,s0
9d0025c0:	afa2001c 	sw	v0,28(sp)
9d0025c4:	8fa20020 	lw	v0,32(sp)
9d0025c8:	00605025 	move	t2,v1
9d0025cc:	8fb40028 	lw	s4,40(sp)
9d0025d0:	30420010 	andi	v0,v0,0x10
9d0025d4:	afa20048 	sw	v0,72(sp)
9d0025d8:	8fa20038 	lw	v0,56(sp)
9d0025dc:	00006025 	move	t4,zero
9d0025e0:	00008025 	move	s0,zero
9d0025e4:	8c431e6c 	lw	v1,7788(v0)
9d0025e8:	8c421e68 	lw	v0,7784(v0)
9d0025ec:	afa3003c 	sw	v1,60(sp)
9d0025f0:	afa20038 	sw	v0,56(sp)
9d0025f4:	8fa2001c 	lw	v0,28(sp)
9d0025f8:	10550007 	beq	v0,s5,9d002618 <__fmt_fp+0x760>
9d0025fc:	02805825 	move	t3,s4
9d002600:	8fa2009c 	lw	v0,156(sp)
9d002604:	8c420010 	lw	v0,16(v0)
9d002608:	2442fffb 	addiu	v0,v0,-5
9d00260c:	0282102b 	sltu	v0,s4,v0
9d002610:	5440ff0b 	bnezl	v0,9d002240 <__fmt_fp+0x388>
9d002614:	01402825 	move	a1,t2
9d002618:	1600000a 	bnez	s0,9d002644 <__fmt_fp+0x78c>
9d00261c:	02d42021 	addu	a0,s6,s4
9d002620:	8fa20020 	lw	v0,32(sp)
9d002624:	30420010 	andi	v0,v0,0x10
9d002628:	10400007 	beqz	v0,9d002648 <__fmt_fp+0x790>
9d00262c:	24020065 	li	v0,101
9d002630:	02cb5821 	addu	t3,s6,t3
9d002634:	2402002e 	li	v0,46
9d002638:	26940001 	addiu	s4,s4,1
9d00263c:	a1620000 	sb	v0,0(t3)
9d002640:	02d42021 	addu	a0,s6,s4
9d002644:	24020065 	li	v0,101
9d002648:	17c20026 	bne	s8,v0,9d0026e4 <__fmt_fp+0x82c>
9d00264c:	a0800000 	sb	zero,0(a0)
9d002650:	8fa20040 	lw	v0,64(sp)
9d002654:	00002825 	move	a1,zero
9d002658:	2442ffff 	addiu	v0,v0,-1
9d00265c:	02c21821 	addu	v1,s6,v0
9d002660:	06e10003 	bgez	s7,9d002670 <__fmt_fp+0x7b8>
9d002664:	a0600000 	sb	zero,0(v1)
9d002668:	0017b823 	negu	s7,s7
9d00266c:	24050001 	li	a1,1
9d002670:	8fa30040 	lw	v1,64(sp)
9d002674:	24060003 	li	a2,3
9d002678:	2407000a 	li	a3,10
9d00267c:	00c33023 	subu	a2,a2,v1
9d002680:	16e0ff46 	bnez	s7,9d00239c <__fmt_fp+0x4e4>
9d002684:	2443ffff 	addiu	v1,v0,-1
9d002688:	00c24021 	addu	t0,a2,v0
9d00268c:	1d00ff43 	bgtz	t0,9d00239c <__fmt_fp+0x4e4>
9d002690:	00000000 	nop
9d002694:	2407002d 	li	a3,45
9d002698:	2406002b 	li	a2,43
9d00269c:	00e5300b 	movn	a2,a3,a1
9d0026a0:	02c31821 	addu	v1,s6,v1
9d0026a4:	a0660000 	sb	a2,0(v1)
9d0026a8:	8fa300a4 	lw	v1,164(sp)
9d0026ac:	24050045 	li	a1,69
9d0026b0:	2442fffe 	addiu	v0,v0,-2
9d0026b4:	2463ffbf 	addiu	v1,v1,-65
9d0026b8:	2c63001a 	sltiu	v1,v1,26
9d0026bc:	00a3f00b 	movn	s8,a1,v1
9d0026c0:	8fa30018 	lw	v1,24(sp)
9d0026c4:	02c22821 	addu	a1,s6,v0
9d0026c8:	0282a02a 	slt	s4,s4,v0
9d0026cc:	2463fffe 	addiu	v1,v1,-2
9d0026d0:	a0be0000 	sb	s8,0(a1)
9d0026d4:	12800003 	beqz	s4,9d0026e4 <__fmt_fp+0x82c>
9d0026d8:	afa30018 	sw	v1,24(sp)
9d0026dc:	0f401a18 	jal	9d006860 <strcpy>
9d0026e0:	00000000 	nop
9d0026e4:	8fa20020 	lw	v0,32(sp)
9d0026e8:	24030002 	li	v1,2
9d0026ec:	30420003 	andi	v0,v0,0x3
9d0026f0:	1443fe3e 	bne	v0,v1,9d001fec <__fmt_fp+0x134>
9d0026f4:	02c02025 	move	a0,s6
9d0026f8:	8fa20018 	lw	v0,24(sp)
9d0026fc:	1840fe3b 	blez	v0,9d001fec <__fmt_fp+0x134>
9d002700:	00000000 	nop
9d002704:	0f401a74 	jal	9d0069d0 <strlen>
9d002708:	02c02025 	move	a0,s6
9d00270c:	8fa30028 	lw	v1,40(sp)
9d002710:	0043182a 	slt	v1,v0,v1
9d002714:	1060ff2d 	beqz	v1,9d0023cc <__fmt_fp+0x514>
9d002718:	02c21821 	addu	v1,s6,v0
9d00271c:	8fa60018 	lw	a2,24(sp)
9d002720:	8fa4002c 	lw	a0,44(sp)
9d002724:	0f401a2c 	jal	9d0068b0 <memset>
9d002728:	24050030 	li	a1,48
9d00272c:	afa00024 	sw	zero,36(sp)
9d002730:	1000fe2e 	b	9d001fec <__fmt_fp+0x134>
9d002734:	02c02025 	move	a0,s6
9d002738:	1000fe6d 	b	9d0020f0 <__fmt_fp+0x238>
9d00273c:	24100006 	li	s0,6
9d002740:	8fa30030 	lw	v1,48(sp)
9d002744:	1062fe6a 	beq	v1,v0,9d0020f0 <__fmt_fp+0x238>
9d002748:	24100006 	li	s0,6
9d00274c:	1000ff29 	b	9d0023f4 <__fmt_fp+0x53c>
9d002750:	0060f025 	move	s8,v1

Disassembly of section .text.fma:

9d002754 <fma>:
9d002754:	27bdff80 	addiu	sp,sp,-128
9d002758:	afa40080 	sw	a0,128(sp)
9d00275c:	afa60088 	sw	a2,136(sp)
9d002760:	afa7008c 	sw	a3,140(sp)
9d002764:	00803025 	move	a2,a0
9d002768:	00a03825 	move	a3,a1
9d00276c:	27a40030 	addiu	a0,sp,48
9d002770:	afbf007c 	sw	ra,124(sp)
9d002774:	afa50084 	sw	a1,132(sp)
9d002778:	afbe0078 	sw	s8,120(sp)
9d00277c:	afb40068 	sw	s4,104(sp)
9d002780:	afb30064 	sw	s3,100(sp)
9d002784:	afb20060 	sw	s2,96(sp)
9d002788:	8fb30094 	lw	s3,148(sp)
9d00278c:	8fb20090 	lw	s2,144(sp)
9d002790:	afb70074 	sw	s7,116(sp)
9d002794:	afb60070 	sw	s6,112(sp)
9d002798:	afb5006c 	sw	s5,108(sp)
9d00279c:	afb1005c 	sw	s1,92(sp)
9d0027a0:	0f40183c 	jal	9d0060f0 <normalize>
9d0027a4:	afb00058 	sw	s0,88(sp)
9d0027a8:	8fa60088 	lw	a2,136(sp)
9d0027ac:	8fa7008c 	lw	a3,140(sp)
9d0027b0:	8fbe0038 	lw	s8,56(sp)
9d0027b4:	0f40183c 	jal	9d0060f0 <normalize>
9d0027b8:	27a40020 	addiu	a0,sp,32
9d0027bc:	02403025 	move	a2,s2
9d0027c0:	02603825 	move	a3,s3
9d0027c4:	27a40010 	addiu	a0,sp,16
9d0027c8:	0f40183c 	jal	9d0060f0 <normalize>
9d0027cc:	8fb40028 	lw	s4,40(sp)
9d0027d0:	2bc203cb 	slti	v0,s8,971
9d0027d4:	10400003 	beqz	v0,9d0027e4 <fma+0x90>
9d0027d8:	2a8203cb 	slti	v0,s4,971
9d0027dc:	1440000e 	bnez	v0,9d002818 <fma+0xc4>
9d0027e0:	8fa60018 	lw	a2,24(sp)
9d0027e4:	8fa60088 	lw	a2,136(sp)
9d0027e8:	8fa7008c 	lw	a3,140(sp)
9d0027ec:	8fa40080 	lw	a0,128(sp)
9d0027f0:	0f40122e 	jal	9d0048b8 <__muldf3>
9d0027f4:	8fa50084 	lw	a1,132(sp)
9d0027f8:	00403025 	move	a2,v0
9d0027fc:	00603825 	move	a3,v1
9d002800:	02402025 	move	a0,s2
9d002804:	0f400e42 	jal	9d003908 <__adddf3>
9d002808:	02602825 	move	a1,s3
9d00280c:	00409025 	move	s2,v0
9d002810:	10000006 	b	9d00282c <fma+0xd8>
9d002814:	00609825 	move	s3,v1
9d002818:	28c203cb 	slti	v0,a2,971
9d00281c:	14400011 	bnez	v0,9d002864 <fma+0x110>
9d002820:	240203cb 	li	v0,971
9d002824:	14c2fff0 	bne	a2,v0,9d0027e8 <fma+0x94>
9d002828:	8fa60088 	lw	a2,136(sp)
9d00282c:	8fbf007c 	lw	ra,124(sp)
9d002830:	02401025 	move	v0,s2
9d002834:	02601825 	move	v1,s3
9d002838:	8fbe0078 	lw	s8,120(sp)
9d00283c:	8fb70074 	lw	s7,116(sp)
9d002840:	8fb60070 	lw	s6,112(sp)
9d002844:	8fb5006c 	lw	s5,108(sp)
9d002848:	8fb40068 	lw	s4,104(sp)
9d00284c:	8fb30064 	lw	s3,100(sp)
9d002850:	8fb20060 	lw	s2,96(sp)
9d002854:	8fb1005c 	lw	s1,92(sp)
9d002858:	8fb00058 	lw	s0,88(sp)
9d00285c:	03e00008 	jr	ra
9d002860:	27bd0080 	addiu	sp,sp,128
9d002864:	8fa20030 	lw	v0,48(sp)
9d002868:	8fae0020 	lw	t6,32(sp)
9d00286c:	8fa40024 	lw	a0,36(sp)
9d002870:	8fa70034 	lw	a3,52(sp)
9d002874:	004e0019 	multu	v0,t6
9d002878:	029ef021 	addu	s8,s4,s8
9d00287c:	00dea023 	subu	s4,a2,s8
9d002880:	8fa80010 	lw	t0,16(sp)
9d002884:	8fb70014 	lw	s7,20(sp)
9d002888:	00005012 	mflo	t2
9d00288c:	afaa0040 	sw	t2,64(sp)
9d002890:	8fad0040 	lw	t5,64(sp)
9d002894:	00005810 	mfhi	t3
9d002898:	afab0044 	sw	t3,68(sp)
9d00289c:	00440019 	multu	v0,a0
9d0028a0:	00001012 	mflo	v0
9d0028a4:	00001810 	mfhi	v1
9d0028a8:	00ee0019 	multu	a3,t6
9d0028ac:	00007810 	mfhi	t7
9d0028b0:	006f5021 	addu	t2,v1,t7
9d0028b4:	00007012 	mflo	t6
9d0028b8:	004e2821 	addu	a1,v0,t6
9d0028bc:	00a2582b 	sltu	t3,a1,v0
9d0028c0:	00e40019 	multu	a3,a0
9d0028c4:	8fa20044 	lw	v0,68(sp)
9d0028c8:	016a5821 	addu	t3,t3,t2
9d0028cc:	00a27821 	addu	t7,a1,v0
9d0028d0:	01e2382b 	sltu	a3,t7,v0
9d0028d4:	00002012 	mflo	a0
9d0028d8:	008b5821 	addu	t3,a0,t3
9d0028dc:	0164502b 	sltu	t2,t3,a0
9d0028e0:	00002810 	mfhi	a1
9d0028e4:	01673821 	addu	a3,t3,a3
9d0028e8:	01455021 	addu	t2,t2,a1
9d0028ec:	00eb182b 	sltu	v1,a3,t3
9d0028f0:	1a8000ae 	blez	s4,9d002bac <fma+0x458>
9d0028f4:	006ab021 	addu	s6,v1,t2
9d0028f8:	2a820040 	slti	v0,s4,64
9d0028fc:	5040007f 	beqzl	v0,9d002afc <fma+0x3a8>
9d002900:	2694ffc0 	addiu	s4,s4,-64
9d002904:	01002025 	move	a0,t0
9d002908:	02e02825 	move	a1,s7
9d00290c:	02803025 	move	a2,s4
9d002910:	afa70054 	sw	a3,84(sp)
9d002914:	afaf0050 	sw	t7,80(sp)
9d002918:	afad004c 	sw	t5,76(sp)
9d00291c:	0f4019f4 	jal	9d0067d0 <__ashldi3>
9d002920:	afa80048 	sw	t0,72(sp)
9d002924:	8fa80048 	lw	t0,72(sp)
9d002928:	24060040 	li	a2,64
9d00292c:	02e02825 	move	a1,s7
9d002930:	01002025 	move	a0,t0
9d002934:	00d43023 	subu	a2,a2,s4
9d002938:	00408025 	move	s0,v0
9d00293c:	0f4019e5 	jal	9d006794 <__lshrdi3>
9d002940:	afa30040 	sw	v1,64(sp)
9d002944:	8fb90040 	lw	t9,64(sp)
9d002948:	8fad004c 	lw	t5,76(sp)
9d00294c:	8faf0050 	lw	t7,80(sp)
9d002950:	8fa70054 	lw	a3,84(sp)
9d002954:	00404025 	move	t0,v0
9d002958:	0060b825 	move	s7,v1
9d00295c:	8fa2002c 	lw	v0,44(sp)
9d002960:	8fb1003c 	lw	s1,60(sp)
9d002964:	02228826 	xor	s1,s1,v0
9d002968:	8fa2001c 	lw	v0,28(sp)
9d00296c:	145100ba 	bne	v0,s1,9d002c58 <fma+0x504>
9d002970:	01b07023 	subu	t6,t5,s0
9d002974:	020d7021 	addu	t6,s0,t5
9d002978:	01d0582b 	sltu	t3,t6,s0
9d00297c:	032f7821 	addu	t7,t9,t7
9d002980:	016fa021 	addu	s4,t3,t7
9d002984:	0299102b 	sltu	v0,s4,t9
9d002988:	01c0a825 	move	s5,t6
9d00298c:	14400007 	bnez	v0,9d0029ac <fma+0x258>
9d002990:	24040001 	li	a0,1
9d002994:	57340005 	bnel	t9,s4,9d0029ac <fma+0x258>
9d002998:	00002025 	move	a0,zero
9d00299c:	01d0802b 	sltu	s0,t6,s0
9d0029a0:	16000003 	bnez	s0,9d0029b0 <fma+0x25c>
9d0029a4:	01074821 	addu	t1,t0,a3
9d0029a8:	00002025 	move	a0,zero
9d0029ac:	01074821 	addu	t1,t0,a3
9d0029b0:	0128c02b 	sltu	t8,t1,t0
9d0029b4:	02f61821 	addu	v1,s7,s6
9d0029b8:	00894821 	addu	t1,a0,t1
9d0029bc:	0303c021 	addu	t8,t8,v1
9d0029c0:	0124202b 	sltu	a0,t1,a0
9d0029c4:	0098c021 	addu	t8,a0,t8
9d0029c8:	01202025 	move	a0,t1
9d0029cc:	03002825 	move	a1,t8
9d0029d0:	afa90048 	sw	t1,72(sp)
9d0029d4:	0f40190b 	jal	9d00642c <a_clz_64>
9d0029d8:	afb80040 	sw	t8,64(sp)
9d0029dc:	2453ffff 	addiu	s3,v0,-1
9d0029e0:	24060040 	li	a2,64
9d0029e4:	00d33023 	subu	a2,a2,s3
9d0029e8:	02a02025 	move	a0,s5
9d0029ec:	0f4019e5 	jal	9d006794 <__lshrdi3>
9d0029f0:	02802825 	move	a1,s4
9d0029f4:	8fa90048 	lw	t1,72(sp)
9d0029f8:	8fb80040 	lw	t8,64(sp)
9d0029fc:	02603025 	move	a2,s3
9d002a00:	01202025 	move	a0,t1
9d002a04:	03002825 	move	a1,t8
9d002a08:	00408025 	move	s0,v0
9d002a0c:	0f4019f4 	jal	9d0067d0 <__ashldi3>
9d002a10:	00609025 	move	s2,v1
9d002a14:	02603025 	move	a2,s3
9d002a18:	02a02025 	move	a0,s5
9d002a1c:	02802825 	move	a1,s4
9d002a20:	02028025 	or	s0,s0,v0
9d002a24:	0f4019f4 	jal	9d0067d0 <__ashldi3>
9d002a28:	02439025 	or	s2,s2,v1
9d002a2c:	00431025 	or	v0,v0,v1
9d002a30:	0002102b 	sltu	v0,zero,v0
9d002a34:	27de0040 	addiu	s8,s8,64
9d002a38:	02028025 	or	s0,s0,v0
9d002a3c:	03d3f023 	subu	s8,s8,s3
9d002a40:	02002025 	move	a0,s0
9d002a44:	12200005 	beqz	s1,9d002a5c <fma+0x308>
9d002a48:	02402825 	move	a1,s2
9d002a4c:	00102023 	negu	a0,s0
9d002a50:	0004102b 	sltu	v0,zero,a0
9d002a54:	00122823 	negu	a1,s2
9d002a58:	00a22823 	subu	a1,a1,v0
9d002a5c:	0f40137d 	jal	9d004df4 <__floatdidf>
9d002a60:	00000000 	nop
9d002a64:	0040b025 	move	s6,v0
9d002a68:	2bc2fbc4 	slti	v0,s8,-1084
9d002a6c:	104000fb 	beqz	v0,9d002e5c <fma+0x708>
9d002a70:	0060b825 	move	s7,v1
9d002a74:	2402fbc3 	li	v0,-1085
9d002a78:	17c200fe 	bne	s8,v0,9d002e74 <fma+0x720>
9d002a7c:	00102580 	sll	a0,s0,0x16
9d002a80:	122000b8 	beqz	s1,9d002d64 <fma+0x610>
9d002a84:	3c029d00 	lui	v0,0x9d00
9d002a88:	3c029d00 	lui	v0,0x9d00
9d002a8c:	8c541e90 	lw	s4,7824(v0)
9d002a90:	8c551e94 	lw	s5,7828(v0)
9d002a94:	02c03025 	move	a2,s6
9d002a98:	02e03825 	move	a3,s7
9d002a9c:	02802025 	move	a0,s4
9d002aa0:	0f401572 	jal	9d0055c8 <__eqdf2>
9d002aa4:	02a02825 	move	a1,s5
9d002aa8:	144000b1 	bnez	v0,9d002d70 <fma+0x61c>
9d002aac:	00101540 	sll	v0,s0,0x15
9d002ab0:	3c029d00 	lui	v0,0x9d00
9d002ab4:	8c461e98 	lw	a2,7832(v0)
9d002ab8:	8c471e9c 	lw	a3,7836(v0)
9d002abc:	02c02025 	move	a0,s6
9d002ac0:	0f40122e 	jal	9d0048b8 <__muldf3>
9d002ac4:	02e02825 	move	a1,s7
9d002ac8:	00602825 	move	a1,v1
9d002acc:	0f40168b 	jal	9d005a2c <__truncdfsf2>
9d002ad0:	00402025 	move	a0,v0
9d002ad4:	0f4017e7 	jal	9d005f9c <__extendsfdf2>
9d002ad8:	00402025 	move	a0,v0
9d002adc:	3c049d00 	lui	a0,0x9d00
9d002ae0:	8c861ea0 	lw	a2,7840(a0)
9d002ae4:	8c871ea4 	lw	a3,7844(a0)
9d002ae8:	00602825 	move	a1,v1
9d002aec:	0f40122e 	jal	9d0048b8 <__muldf3>
9d002af0:	00402025 	move	a0,v0
9d002af4:	1000ff46 	b	9d002810 <fma+0xbc>
9d002af8:	00409025 	move	s2,v0
9d002afc:	1280004d 	beqz	s4,9d002c34 <fma+0x4e0>
9d002b00:	24deffc0 	addiu	s8,a2,-64
9d002b04:	2a820040 	slti	v0,s4,64
9d002b08:	10400046 	beqz	v0,9d002c24 <fma+0x4d0>
9d002b0c:	afa7004c 	sw	a3,76(sp)
9d002b10:	240d0040 	li	t5,64
9d002b14:	8fa40040 	lw	a0,64(sp)
9d002b18:	01b4a823 	subu	s5,t5,s4
9d002b1c:	01e02825 	move	a1,t7
9d002b20:	02a03025 	move	a2,s5
9d002b24:	afa80050 	sw	t0,80(sp)
9d002b28:	0f4019f4 	jal	9d0067d0 <__ashldi3>
9d002b2c:	afaf0048 	sw	t7,72(sp)
9d002b30:	8faf0048 	lw	t7,72(sp)
9d002b34:	8fa40040 	lw	a0,64(sp)
9d002b38:	02803025 	move	a2,s4
9d002b3c:	01e02825 	move	a1,t7
9d002b40:	0f4019e5 	jal	9d006794 <__lshrdi3>
9d002b44:	00438825 	or	s1,v0,v1
9d002b48:	8fa7004c 	lw	a3,76(sp)
9d002b4c:	02c02825 	move	a1,s6
9d002b50:	02a03025 	move	a2,s5
9d002b54:	00e02025 	move	a0,a3
9d002b58:	0011882b 	sltu	s1,zero,s1
9d002b5c:	00608025 	move	s0,v1
9d002b60:	0f4019f4 	jal	9d0067d0 <__ashldi3>
9d002b64:	02228825 	or	s1,s1,v0
9d002b68:	8fa7004c 	lw	a3,76(sp)
9d002b6c:	02037825 	or	t7,s0,v1
9d002b70:	02226825 	or	t5,s1,v0
9d002b74:	00e02025 	move	a0,a3
9d002b78:	02c02825 	move	a1,s6
9d002b7c:	02803025 	move	a2,s4
9d002b80:	afad0048 	sw	t5,72(sp)
9d002b84:	0f4019e5 	jal	9d006794 <__lshrdi3>
9d002b88:	afaf0040 	sw	t7,64(sp)
9d002b8c:	00403825 	move	a3,v0
9d002b90:	0060b025 	move	s6,v1
9d002b94:	00008025 	move	s0,zero
9d002b98:	0000c825 	move	t9,zero
9d002b9c:	8faf0040 	lw	t7,64(sp)
9d002ba0:	8fad0048 	lw	t5,72(sp)
9d002ba4:	1000ff6d 	b	9d00295c <fma+0x208>
9d002ba8:	8fa80050 	lw	t0,80(sp)
9d002bac:	03c68823 	subu	s1,s8,a2
9d002bb0:	12200023 	beqz	s1,9d002c40 <fma+0x4ec>
9d002bb4:	01008025 	move	s0,t0
9d002bb8:	2a220040 	slti	v0,s1,64
9d002bbc:	50400024 	beqzl	v0,9d002c50 <fma+0x4fc>
9d002bc0:	24100001 	li	s0,1
9d002bc4:	24060040 	li	a2,64
9d002bc8:	01002025 	move	a0,t0
9d002bcc:	02e02825 	move	a1,s7
9d002bd0:	00d13023 	subu	a2,a2,s1
9d002bd4:	afa70050 	sw	a3,80(sp)
9d002bd8:	afaf004c 	sw	t7,76(sp)
9d002bdc:	afad0048 	sw	t5,72(sp)
9d002be0:	0f4019f4 	jal	9d0067d0 <__ashldi3>
9d002be4:	afa80040 	sw	t0,64(sp)
9d002be8:	8fa80040 	lw	t0,64(sp)
9d002bec:	00438025 	or	s0,v0,v1
9d002bf0:	02e02825 	move	a1,s7
9d002bf4:	01002025 	move	a0,t0
9d002bf8:	0f4019e5 	jal	9d006794 <__lshrdi3>
9d002bfc:	02203025 	move	a2,s1
9d002c00:	0010802b 	sltu	s0,zero,s0
9d002c04:	02028025 	or	s0,s0,v0
9d002c08:	0060c825 	move	t9,v1
9d002c0c:	00004025 	move	t0,zero
9d002c10:	0000b825 	move	s7,zero
9d002c14:	8fad0048 	lw	t5,72(sp)
9d002c18:	8faf004c 	lw	t7,76(sp)
9d002c1c:	1000ff4f 	b	9d00295c <fma+0x208>
9d002c20:	8fa70050 	lw	a3,80(sp)
9d002c24:	240d0001 	li	t5,1
9d002c28:	00007825 	move	t7,zero
9d002c2c:	00003825 	move	a3,zero
9d002c30:	0000b025 	move	s6,zero
9d002c34:	00008025 	move	s0,zero
9d002c38:	1000ff48 	b	9d00295c <fma+0x208>
9d002c3c:	0000c825 	move	t9,zero
9d002c40:	02e0c825 	move	t9,s7
9d002c44:	00004025 	move	t0,zero
9d002c48:	1000ff44 	b	9d00295c <fma+0x208>
9d002c4c:	0000b825 	move	s7,zero
9d002c50:	1000fffc 	b	9d002c44 <fma+0x4f0>
9d002c54:	0000c825 	move	t9,zero
9d002c58:	01ae182b 	sltu	v1,t5,t6
9d002c5c:	01f95823 	subu	t3,t7,t9
9d002c60:	0163a023 	subu	s4,t3,v1
9d002c64:	01f4102b 	sltu	v0,t7,s4
9d002c68:	01c0a825 	move	s5,t6
9d002c6c:	24060001 	li	a2,1
9d002c70:	14400007 	bnez	v0,9d002c90 <fma+0x53c>
9d002c74:	00002025 	move	a0,zero
9d002c78:	568f0005 	bnel	s4,t7,9d002c90 <fma+0x53c>
9d002c7c:	00003025 	move	a2,zero
9d002c80:	14600004 	bnez	v1,9d002c94 <fma+0x540>
9d002c84:	00e81823 	subu	v1,a3,t0
9d002c88:	00003025 	move	a2,zero
9d002c8c:	00002025 	move	a0,zero
9d002c90:	00e81823 	subu	v1,a3,t0
9d002c94:	00e3102b 	sltu	v0,a3,v1
9d002c98:	02d7c023 	subu	t8,s6,s7
9d002c9c:	0302c023 	subu	t8,t8,v0
9d002ca0:	00664823 	subu	t1,v1,a2
9d002ca4:	0069182b 	sltu	v1,v1,t1
9d002ca8:	0304c023 	subu	t8,t8,a0
9d002cac:	0303c023 	subu	t8,t8,v1
9d002cb0:	07010015 	bgez	t8,9d002d08 <fma+0x5b4>
9d002cb4:	01381025 	or	v0,t1,t8
9d002cb8:	020d7023 	subu	t6,s0,t5
9d002cbc:	020e802b 	sltu	s0,s0,t6
9d002cc0:	032f5823 	subu	t3,t9,t7
9d002cc4:	01073823 	subu	a3,t0,a3
9d002cc8:	0170a023 	subu	s4,t3,s0
9d002ccc:	0107102b 	sltu	v0,t0,a3
9d002cd0:	02f61823 	subu	v1,s7,s6
9d002cd4:	01d44825 	or	t1,t6,s4
9d002cd8:	00e63021 	addu	a2,a3,a2
9d002cdc:	00621823 	subu	v1,v1,v0
9d002ce0:	0009482b 	sltu	t1,zero,t1
9d002ce4:	00c7382b 	sltu	a3,a2,a3
9d002ce8:	00641021 	addu	v0,v1,a0
9d002cec:	00c94823 	subu	t1,a2,t1
9d002cf0:	00e21021 	addu	v0,a3,v0
9d002cf4:	00c9302b 	sltu	a2,a2,t1
9d002cf8:	01c0a825 	move	s5,t6
9d002cfc:	0046c023 	subu	t8,v0,a2
9d002d00:	2e310001 	sltiu	s1,s1,1
9d002d04:	01381025 	or	v0,t1,t8
9d002d08:	1440ff30 	bnez	v0,9d0029cc <fma+0x278>
9d002d0c:	01202025 	move	a0,t1
9d002d10:	02b41025 	or	v0,s5,s4
9d002d14:	1040feb3 	beqz	v0,9d0027e4 <fma+0x90>
9d002d18:	02a02025 	move	a0,s5
9d002d1c:	0f40190b 	jal	9d00642c <a_clz_64>
9d002d20:	02802825 	move	a1,s4
9d002d24:	2453ffff 	addiu	s3,v0,-1
9d002d28:	06610008 	bgez	s3,9d002d4c <fma+0x5f8>
9d002d2c:	02603025 	move	a2,s3
9d002d30:	001417c0 	sll	v0,s4,0x1f
9d002d34:	00158042 	srl	s0,s5,0x1
9d002d38:	00508025 	or	s0,v0,s0
9d002d3c:	32ae0001 	andi	t6,s5,0x1
9d002d40:	020e8025 	or	s0,s0,t6
9d002d44:	1000ff3d 	b	9d002a3c <fma+0x2e8>
9d002d48:	00149042 	srl	s2,s4,0x1
9d002d4c:	02a02025 	move	a0,s5
9d002d50:	0f4019f4 	jal	9d0067d0 <__ashldi3>
9d002d54:	02802825 	move	a1,s4
9d002d58:	00408025 	move	s0,v0
9d002d5c:	1000ff37 	b	9d002a3c <fma+0x2e8>
9d002d60:	00609025 	move	s2,v1
9d002d64:	8c541e88 	lw	s4,7816(v0)
9d002d68:	1000ff4a 	b	9d002a94 <fma+0x340>
9d002d6c:	8c551e8c 	lw	s5,7820(v0)
9d002d70:	1040003b 	beqz	v0,9d002e60 <fma+0x70c>
9d002d74:	03c03025 	move	a2,s8
9d002d78:	001217c0 	sll	v0,s2,0x1f
9d002d7c:	00102042 	srl	a0,s0,0x1
9d002d80:	00442025 	or	a0,v0,a0
9d002d84:	00122842 	srl	a1,s2,0x1
9d002d88:	32100001 	andi	s0,s0,0x1
9d002d8c:	3c024000 	lui	v0,0x4000
9d002d90:	00902025 	or	a0,a0,s0
9d002d94:	12200005 	beqz	s1,9d002dac <fma+0x658>
9d002d98:	00452825 	or	a1,v0,a1
9d002d9c:	00042023 	negu	a0,a0
9d002da0:	0004102b 	sltu	v0,zero,a0
9d002da4:	00052823 	negu	a1,a1
9d002da8:	00a22823 	subu	a1,a1,v0
9d002dac:	0f40137d 	jal	9d004df4 <__floatdidf>
9d002db0:	00000000 	nop
9d002db4:	00403025 	move	a2,v0
9d002db8:	00603825 	move	a3,v1
9d002dbc:	00402025 	move	a0,v0
9d002dc0:	0f400e42 	jal	9d003908 <__adddf3>
9d002dc4:	00602825 	move	a1,v1
9d002dc8:	00402025 	move	a0,v0
9d002dcc:	02803025 	move	a2,s4
9d002dd0:	02a03825 	move	a3,s5
9d002dd4:	0f400e40 	jal	9d003900 <__subdf3>
9d002dd8:	00602825 	move	a1,v1
9d002ddc:	00408025 	move	s0,v0
9d002de0:	3c029d00 	lui	v0,0x9d00
9d002de4:	8c461ea0 	lw	a2,7840(v0)
9d002de8:	8c471ea4 	lw	a3,7844(v0)
9d002dec:	02002025 	move	a0,s0
9d002df0:	00602825 	move	a1,v1
9d002df4:	0f40122e 	jal	9d0048b8 <__muldf3>
9d002df8:	00608825 	move	s1,v1
9d002dfc:	00403025 	move	a2,v0
9d002e00:	00603825 	move	a3,v1
9d002e04:	00402025 	move	a0,v0
9d002e08:	0f40122e 	jal	9d0048b8 <__muldf3>
9d002e0c:	00602825 	move	a1,v1
9d002e10:	02003025 	move	a2,s0
9d002e14:	02203825 	move	a3,s1
9d002e18:	02002025 	move	a0,s0
9d002e1c:	02202825 	move	a1,s1
9d002e20:	00409025 	move	s2,v0
9d002e24:	0f400e40 	jal	9d003900 <__subdf3>
9d002e28:	00609825 	move	s3,v1
9d002e2c:	00403025 	move	a2,v0
9d002e30:	00603825 	move	a3,v1
9d002e34:	02402025 	move	a0,s2
9d002e38:	0f40122e 	jal	9d0048b8 <__muldf3>
9d002e3c:	02602825 	move	a1,s3
9d002e40:	00402025 	move	a0,v0
9d002e44:	02003025 	move	a2,s0
9d002e48:	02203825 	move	a3,s1
9d002e4c:	0f400e42 	jal	9d003908 <__adddf3>
9d002e50:	00602825 	move	a1,v1
9d002e54:	0040b025 	move	s6,v0
9d002e58:	0060b825 	move	s7,v1
9d002e5c:	03c03025 	move	a2,s8
9d002e60:	02c02025 	move	a0,s6
9d002e64:	0f40170a 	jal	9d005c28 <scalbn>
9d002e68:	02e02825 	move	a1,s7
9d002e6c:	1000fe68 	b	9d002810 <fma+0xbc>
9d002e70:	00409025 	move	s2,v0
9d002e74:	00121580 	sll	v0,s2,0x16
9d002e78:	00108282 	srl	s0,s0,0xa
9d002e7c:	00508025 	or	s0,v0,s0
9d002e80:	0004202b 	sltu	a0,zero,a0
9d002e84:	00902025 	or	a0,a0,s0
9d002e88:	02402825 	move	a1,s2
9d002e8c:	00041582 	srl	v0,a0,0x16
9d002e90:	7c054804 	ins	a1,zero,0x0,0xa
9d002e94:	00452825 	or	a1,v0,a1
9d002e98:	12200005 	beqz	s1,9d002eb0 <fma+0x75c>
9d002e9c:	00042280 	sll	a0,a0,0xa
9d002ea0:	00042023 	negu	a0,a0
9d002ea4:	0004102b 	sltu	v0,zero,a0
9d002ea8:	00052823 	negu	a1,a1
9d002eac:	00a22823 	subu	a1,a1,v0
9d002eb0:	0f40137d 	jal	9d004df4 <__floatdidf>
9d002eb4:	00000000 	nop
9d002eb8:	1000ffe7 	b	9d002e58 <fma+0x704>
9d002ebc:	0040b025 	move	s6,v0

Disassembly of section .text.__printf_core:

9d002ec0 <__printf_core>:
9d002ec0:	27bdff18 	addiu	sp,sp,-232
9d002ec4:	afb500d8 	sw	s5,216(sp)
9d002ec8:	3c159d00 	lui	s5,0x9d00
9d002ecc:	afb600dc 	sw	s6,220(sp)
9d002ed0:	afb400d4 	sw	s4,212(sp)
9d002ed4:	afb300d0 	sw	s3,208(sp)
9d002ed8:	afb200cc 	sw	s2,204(sp)
9d002edc:	afb100c8 	sw	s1,200(sp)
9d002ee0:	afbf00e4 	sw	ra,228(sp)
9d002ee4:	afb700e0 	sw	s7,224(sp)
9d002ee8:	afb000c4 	sw	s0,196(sp)
9d002eec:	00809025 	move	s2,a0
9d002ef0:	00c08825 	move	s1,a2
9d002ef4:	afa500b0 	sw	a1,176(sp)
9d002ef8:	00009825 	move	s3,zero
9d002efc:	27b60010 	addiu	s6,sp,16
9d002f00:	24140025 	li	s4,37
9d002f04:	26b51e80 	addiu	s5,s5,7808
9d002f08:	8fa500b0 	lw	a1,176(sp)
9d002f0c:	80a20000 	lb	v0,0(a1)
9d002f10:	104000e5 	beqz	v0,9d0032a8 <__printf_core+0x3e8>
9d002f14:	2402ffff 	li	v0,-1
9d002f18:	afa20094 	sw	v0,148(sp)
9d002f1c:	24020080 	li	v0,128
9d002f20:	afa00090 	sw	zero,144(sp)
9d002f24:	afa00098 	sw	zero,152(sp)
9d002f28:	afb6009c 	sw	s6,156(sp)
9d002f2c:	afa200a0 	sw	v0,160(sp)
9d002f30:	00008025 	move	s0,zero
9d002f34:	00b01021 	addu	v0,a1,s0
9d002f38:	80420000 	lb	v0,0(v0)
9d002f3c:	10400003 	beqz	v0,9d002f4c <__printf_core+0x8c>
9d002f40:	00000000 	nop
9d002f44:	5454fffb 	bnel	v0,s4,9d002f34 <__printf_core+0x74>
9d002f48:	26100001 	addiu	s0,s0,1
9d002f4c:	12000008 	beqz	s0,9d002f70 <__printf_core+0xb0>
9d002f50:	8fb700b0 	lw	s7,176(sp)
9d002f54:	02003025 	move	a2,s0
9d002f58:	0f401927 	jal	9d00649c <__out>
9d002f5c:	02402025 	move	a0,s2
9d002f60:	8fa200b0 	lw	v0,176(sp)
9d002f64:	00501021 	addu	v0,v0,s0
9d002f68:	afa200b0 	sw	v0,176(sp)
9d002f6c:	8fb700b0 	lw	s7,176(sp)
9d002f70:	82e20000 	lb	v0,0(s7)
9d002f74:	545400c5 	bnel	v0,s4,9d00328c <__printf_core+0x3cc>
9d002f78:	02708021 	addu	s0,s3,s0
9d002f7c:	26f70001 	addiu	s7,s7,1
9d002f80:	afb700b0 	sw	s7,176(sp)
9d002f84:	2405002b 	li	a1,43
9d002f88:	2406002d 	li	a2,45
9d002f8c:	24030030 	li	v1,48
9d002f90:	24070020 	li	a3,32
9d002f94:	24080023 	li	t0,35
9d002f98:	8fa400b0 	lw	a0,176(sp)
9d002f9c:	80820000 	lb	v0,0(a0)
9d002fa0:	5045001b 	beql	v0,a1,9d003010 <__printf_core+0x150>
9d002fa4:	8fa20090 	lw	v0,144(sp)
9d002fa8:	2849002c 	slti	t1,v0,44
9d002fac:	1120001e 	beqz	t1,9d003028 <__printf_core+0x168>
9d002fb0:	00000000 	nop
9d002fb4:	50470018 	beql	v0,a3,9d003018 <__printf_core+0x158>
9d002fb8:	8fa20090 	lw	v0,144(sp)
9d002fbc:	50480018 	beql	v0,t0,9d003020 <__printf_core+0x160>
9d002fc0:	8fa20090 	lw	v0,144(sp)
9d002fc4:	2403002a 	li	v1,42
9d002fc8:	5043001e 	beql	v0,v1,9d003044 <__printf_core+0x184>
9d002fcc:	8e220000 	lw	v0,0(s1)
9d002fd0:	0f4018ad 	jal	9d0062b4 <atoi>
9d002fd4:	00000000 	nop
9d002fd8:	afa20098 	sw	v0,152(sp)
9d002fdc:	8fa300b0 	lw	v1,176(sp)
9d002fe0:	80620000 	lb	v0,0(v1)
9d002fe4:	2442ffd0 	addiu	v0,v0,-48
9d002fe8:	2c42000a 	sltiu	v0,v0,10
9d002fec:	10400021 	beqz	v0,9d003074 <__printf_core+0x1b4>
9d002ff0:	24630001 	addiu	v1,v1,1
9d002ff4:	1000fff9 	b	9d002fdc <__printf_core+0x11c>
9d002ff8:	afa300b0 	sw	v1,176(sp)
9d002ffc:	34420001 	ori	v0,v0,0x1
9d003000:	24840001 	addiu	a0,a0,1
9d003004:	afa20090 	sw	v0,144(sp)
9d003008:	1000ffe3 	b	9d002f98 <__printf_core+0xd8>
9d00300c:	afa400b0 	sw	a0,176(sp)
9d003010:	1000fffb 	b	9d003000 <__printf_core+0x140>
9d003014:	34420004 	ori	v0,v0,0x4
9d003018:	1000fff9 	b	9d003000 <__printf_core+0x140>
9d00301c:	34420008 	ori	v0,v0,0x8
9d003020:	1000fff7 	b	9d003000 <__printf_core+0x140>
9d003024:	34420010 	ori	v0,v0,0x10
9d003028:	5046fff4 	beql	v0,a2,9d002ffc <__printf_core+0x13c>
9d00302c:	8fa20090 	lw	v0,144(sp)
9d003030:	5443ffe5 	bnel	v0,v1,9d002fc8 <__printf_core+0x108>
9d003034:	2403002a 	li	v1,42
9d003038:	8fa20090 	lw	v0,144(sp)
9d00303c:	1000fff0 	b	9d003000 <__printf_core+0x140>
9d003040:	34420002 	ori	v0,v0,0x2
9d003044:	24840001 	addiu	a0,a0,1
9d003048:	afa400b0 	sw	a0,176(sp)
9d00304c:	24430004 	addiu	v1,v0,4
9d003050:	8c420000 	lw	v0,0(v0)
9d003054:	ae230000 	sw	v1,0(s1)
9d003058:	04410006 	bgez	v0,9d003074 <__printf_core+0x1b4>
9d00305c:	afa20098 	sw	v0,152(sp)
9d003060:	8fa30090 	lw	v1,144(sp)
9d003064:	00021023 	negu	v0,v0
9d003068:	afa20098 	sw	v0,152(sp)
9d00306c:	38630001 	xori	v1,v1,0x1
9d003070:	afa30090 	sw	v1,144(sp)
9d003074:	8fa20090 	lw	v0,144(sp)
9d003078:	30430001 	andi	v1,v0,0x1
9d00307c:	50600004 	beqzl	v1,9d003090 <__printf_core+0x1d0>
9d003080:	8fa200b0 	lw	v0,176(sp)
9d003084:	7c020844 	ins	v0,zero,0x1,0x1
9d003088:	afa20090 	sw	v0,144(sp)
9d00308c:	8fa200b0 	lw	v0,176(sp)
9d003090:	2403002e 	li	v1,46
9d003094:	80440000 	lb	a0,0(v0)
9d003098:	1483000d 	bne	a0,v1,9d0030d0 <__printf_core+0x210>
9d00309c:	24440001 	addiu	a0,v0,1
9d0030a0:	afa00094 	sw	zero,148(sp)
9d0030a4:	afa400b0 	sw	a0,176(sp)
9d0030a8:	80450001 	lb	a1,1(v0)
9d0030ac:	2403002a 	li	v1,42
9d0030b0:	14a30024 	bne	a1,v1,9d003144 <__printf_core+0x284>
9d0030b4:	24420002 	addiu	v0,v0,2
9d0030b8:	afa200b0 	sw	v0,176(sp)
9d0030bc:	8e220000 	lw	v0,0(s1)
9d0030c0:	24430004 	addiu	v1,v0,4
9d0030c4:	8c420000 	lw	v0,0(v0)
9d0030c8:	ae230000 	sw	v1,0(s1)
9d0030cc:	afa20094 	sw	v0,148(sp)
9d0030d0:	0f40193e 	jal	9d0064f8 <__fmt_state>
9d0030d4:	27a400b0 	addiu	a0,sp,176
9d0030d8:	afa200b8 	sw	v0,184(sp)
9d0030dc:	8fa200b0 	lw	v0,176(sp)
9d0030e0:	0f401a45 	jal	9d006914 <tolower>
9d0030e4:	80440000 	lb	a0,0(v0)
9d0030e8:	24030069 	li	v1,105
9d0030ec:	1043007a 	beq	v0,v1,9d0032d8 <__printf_core+0x418>
9d0030f0:	8fa500b8 	lw	a1,184(sp)
9d0030f4:	2843006a 	slti	v1,v0,106
9d0030f8:	1060002f 	beqz	v1,9d0031b8 <__printf_core+0x2f8>
9d0030fc:	24030070 	li	v1,112
9d003100:	24030063 	li	v1,99
9d003104:	104300bc 	beq	v0,v1,9d0033f8 <__printf_core+0x538>
9d003108:	28430064 	slti	v1,v0,100
9d00310c:	10600018 	beqz	v1,9d003170 <__printf_core+0x2b0>
9d003110:	24030064 	li	v1,100
9d003114:	105400c5 	beq	v0,s4,9d00342c <__printf_core+0x56c>
9d003118:	24030061 	li	v1,97
9d00311c:	5043004e 	beql	v0,v1,9d003258 <__printf_core+0x398>
9d003120:	02203025 	move	a2,s1
9d003124:	24020025 	li	v0,37
9d003128:	a3a200a8 	sb	v0,168(sp)
9d00312c:	2402ffff 	li	v0,-1
9d003130:	afb700b0 	sw	s7,176(sp)
9d003134:	afa00090 	sw	zero,144(sp)
9d003138:	afa00098 	sw	zero,152(sp)
9d00313c:	100000b8 	b	9d003420 <__printf_core+0x560>
9d003140:	afa20094 	sw	v0,148(sp)
9d003144:	0f4018ad 	jal	9d0062b4 <atoi>
9d003148:	00000000 	nop
9d00314c:	afa20094 	sw	v0,148(sp)
9d003150:	8fa300b0 	lw	v1,176(sp)
9d003154:	80620000 	lb	v0,0(v1)
9d003158:	2442ffd0 	addiu	v0,v0,-48
9d00315c:	2c42000a 	sltiu	v0,v0,10
9d003160:	1040ffdb 	beqz	v0,9d0030d0 <__printf_core+0x210>
9d003164:	24630001 	addiu	v1,v1,1
9d003168:	1000fff9 	b	9d003150 <__printf_core+0x290>
9d00316c:	afa300b0 	sw	v1,176(sp)
9d003170:	10430059 	beq	v0,v1,9d0032d8 <__printf_core+0x418>
9d003174:	28420068 	slti	v0,v0,104
9d003178:	1040ffeb 	beqz	v0,9d003128 <__printf_core+0x268>
9d00317c:	24020025 	li	v0,37
9d003180:	02203025 	move	a2,s1
9d003184:	0f40196a 	jal	9d0065a8 <__pop_float>
9d003188:	27a400a8 	addiu	a0,sp,168
9d00318c:	10400097 	beqz	v0,9d0033ec <__printf_core+0x52c>
9d003190:	8fa200b0 	lw	v0,176(sp)
9d003194:	27a600a8 	addiu	a2,sp,168
9d003198:	27a50090 	addiu	a1,sp,144
9d00319c:	24430001 	addiu	v1,v0,1
9d0031a0:	afa300b0 	sw	v1,176(sp)
9d0031a4:	80470000 	lb	a3,0(v0)
9d0031a8:	0f4007ae 	jal	9d001eb8 <__fmt_fp>
9d0031ac:	02402025 	move	a0,s2
9d0031b0:	10000035 	b	9d003288 <__printf_core+0x3c8>
9d0031b4:	02028021 	addu	s0,s0,v0
9d0031b8:	10430072 	beq	v0,v1,9d003384 <__printf_core+0x4c4>
9d0031bc:	28430071 	slti	v1,v0,113
9d0031c0:	10600014 	beqz	v1,9d003214 <__printf_core+0x354>
9d0031c4:	24030075 	li	v1,117
9d0031c8:	2403006e 	li	v1,110
9d0031cc:	10430082 	beq	v0,v1,9d0033d8 <__printf_core+0x518>
9d0031d0:	2403006f 	li	v1,111
9d0031d4:	1443ffd4 	bne	v0,v1,9d003128 <__printf_core+0x268>
9d0031d8:	24020025 	li	v0,37
9d0031dc:	02203825 	move	a3,s1
9d0031e0:	00003025 	move	a2,zero
9d0031e4:	0f401469 	jal	9d0051a4 <__pop_int>
9d0031e8:	27a400a8 	addiu	a0,sp,168
9d0031ec:	1040007f 	beqz	v0,9d0033ec <__printf_core+0x52c>
9d0031f0:	8fa200b0 	lw	v0,176(sp)
9d0031f4:	27a600a8 	addiu	a2,sp,168
9d0031f8:	27a50090 	addiu	a1,sp,144
9d0031fc:	24420001 	addiu	v0,v0,1
9d003200:	02402025 	move	a0,s2
9d003204:	0f4016cb 	jal	9d005b2c <__fmt_o>
9d003208:	afa200b0 	sw	v0,176(sp)
9d00320c:	1000001e 	b	9d003288 <__printf_core+0x3c8>
9d003210:	02028021 	addu	s0,s0,v0
9d003214:	1043003e 	beq	v0,v1,9d003310 <__printf_core+0x450>
9d003218:	24030078 	li	v1,120
9d00321c:	1043004a 	beq	v0,v1,9d003348 <__printf_core+0x488>
9d003220:	24030073 	li	v1,115
9d003224:	1443ffc0 	bne	v0,v1,9d003128 <__printf_core+0x268>
9d003228:	24020025 	li	v0,37
9d00322c:	24020080 	li	v0,128
9d003230:	14a2006e 	bne	a1,v0,9d0033ec <__printf_core+0x52c>
9d003234:	8fa200b0 	lw	v0,176(sp)
9d003238:	00003825 	move	a3,zero
9d00323c:	24420001 	addiu	v0,v0,1
9d003240:	afa200b0 	sw	v0,176(sp)
9d003244:	8e220000 	lw	v0,0(s1)
9d003248:	24430004 	addiu	v1,v0,4
9d00324c:	ae230000 	sw	v1,0(s1)
9d003250:	1000005c 	b	9d0033c4 <__printf_core+0x504>
9d003254:	8c460000 	lw	a2,0(v0)
9d003258:	0f40196a 	jal	9d0065a8 <__pop_float>
9d00325c:	27a400a8 	addiu	a0,sp,168
9d003260:	10400062 	beqz	v0,9d0033ec <__printf_core+0x52c>
9d003264:	8fa200b0 	lw	v0,176(sp)
9d003268:	27a600a8 	addiu	a2,sp,168
9d00326c:	27a50090 	addiu	a1,sp,144
9d003270:	24430001 	addiu	v1,v0,1
9d003274:	afa300b0 	sw	v1,176(sp)
9d003278:	80470000 	lb	a3,0(v0)
9d00327c:	0f401a80 	jal	9d006a00 <__fmt_a>
9d003280:	02402025 	move	a0,s2
9d003284:	02028021 	addu	s0,s0,v0
9d003288:	02708021 	addu	s0,s3,s0
9d00328c:	0213982a 	slt	s3,s0,s3
9d003290:	1260ff1d 	beqz	s3,9d002f08 <__printf_core+0x48>
9d003294:	02009825 	move	s3,s0
9d003298:	3c02a000 	lui	v0,0xa000
9d00329c:	2403004f 	li	v1,79
9d0032a0:	ac430018 	sw	v1,24(v0)
9d0032a4:	2413ffff 	li	s3,-1
9d0032a8:	8fbf00e4 	lw	ra,228(sp)
9d0032ac:	02601025 	move	v0,s3
9d0032b0:	8fb700e0 	lw	s7,224(sp)
9d0032b4:	8fb600dc 	lw	s6,220(sp)
9d0032b8:	8fb500d8 	lw	s5,216(sp)
9d0032bc:	8fb400d4 	lw	s4,212(sp)
9d0032c0:	8fb300d0 	lw	s3,208(sp)
9d0032c4:	8fb200cc 	lw	s2,204(sp)
9d0032c8:	8fb100c8 	lw	s1,200(sp)
9d0032cc:	8fb000c4 	lw	s0,196(sp)
9d0032d0:	03e00008 	jr	ra
9d0032d4:	27bd00e8 	addiu	sp,sp,232
9d0032d8:	02203825 	move	a3,s1
9d0032dc:	24060001 	li	a2,1
9d0032e0:	0f401469 	jal	9d0051a4 <__pop_int>
9d0032e4:	27a400a8 	addiu	a0,sp,168
9d0032e8:	10400040 	beqz	v0,9d0033ec <__printf_core+0x52c>
9d0032ec:	8fa200b0 	lw	v0,176(sp)
9d0032f0:	27a600a8 	addiu	a2,sp,168
9d0032f4:	27a50090 	addiu	a1,sp,144
9d0032f8:	24420001 	addiu	v0,v0,1
9d0032fc:	02402025 	move	a0,s2
9d003300:	0f4014cb 	jal	9d00532c <__fmt_d>
9d003304:	afa200b0 	sw	v0,176(sp)
9d003308:	1000ffdf 	b	9d003288 <__printf_core+0x3c8>
9d00330c:	02028021 	addu	s0,s0,v0
9d003310:	02203825 	move	a3,s1
9d003314:	00003025 	move	a2,zero
9d003318:	0f401469 	jal	9d0051a4 <__pop_int>
9d00331c:	27a400a8 	addiu	a0,sp,168
9d003320:	10400032 	beqz	v0,9d0033ec <__printf_core+0x52c>
9d003324:	8fa200b0 	lw	v0,176(sp)
9d003328:	27a600a8 	addiu	a2,sp,168
9d00332c:	27a50090 	addiu	a1,sp,144
9d003330:	24420001 	addiu	v0,v0,1
9d003334:	02402025 	move	a0,s2
9d003338:	0f4017b8 	jal	9d005ee0 <__fmt_u>
9d00333c:	afa200b0 	sw	v0,176(sp)
9d003340:	1000ffd1 	b	9d003288 <__printf_core+0x3c8>
9d003344:	02028021 	addu	s0,s0,v0
9d003348:	02203825 	move	a3,s1
9d00334c:	00003025 	move	a2,zero
9d003350:	0f401469 	jal	9d0051a4 <__pop_int>
9d003354:	27a400a8 	addiu	a0,sp,168
9d003358:	10400024 	beqz	v0,9d0033ec <__printf_core+0x52c>
9d00335c:	8fa200b0 	lw	v0,176(sp)
9d003360:	24430001 	addiu	v1,v0,1
9d003364:	afa300b0 	sw	v1,176(sp)
9d003368:	80470000 	lb	a3,0(v0)
9d00336c:	27a600a8 	addiu	a2,sp,168
9d003370:	27a50090 	addiu	a1,sp,144
9d003374:	0f4012f9 	jal	9d004be4 <__fmt_x>
9d003378:	02402025 	move	a0,s2
9d00337c:	1000ffc2 	b	9d003288 <__printf_core+0x3c8>
9d003380:	02028021 	addu	s0,s0,v0
9d003384:	02203825 	move	a3,s1
9d003388:	00003025 	move	a2,zero
9d00338c:	240500f0 	li	a1,240
9d003390:	0f401469 	jal	9d0051a4 <__pop_int>
9d003394:	27a400a8 	addiu	a0,sp,168
9d003398:	10400014 	beqz	v0,9d0033ec <__printf_core+0x52c>
9d00339c:	8fa200b0 	lw	v0,176(sp)
9d0033a0:	8fa300ac 	lw	v1,172(sp)
9d0033a4:	24420001 	addiu	v0,v0,1
9d0033a8:	afa200b0 	sw	v0,176(sp)
9d0033ac:	8fa200a8 	lw	v0,168(sp)
9d0033b0:	00431025 	or	v0,v0,v1
9d0033b4:	1440ffed 	bnez	v0,9d00336c <__printf_core+0x4ac>
9d0033b8:	24070078 	li	a3,120
9d0033bc:	00003825 	move	a3,zero
9d0033c0:	02a03025 	move	a2,s5
9d0033c4:	27a50090 	addiu	a1,sp,144
9d0033c8:	0f401812 	jal	9d006048 <__fmt_s>
9d0033cc:	02402025 	move	a0,s2
9d0033d0:	1000ffad 	b	9d003288 <__printf_core+0x3c8>
9d0033d4:	02028021 	addu	s0,s0,v0
9d0033d8:	02203825 	move	a3,s1
9d0033dc:	02703021 	addu	a2,s3,s0
9d0033e0:	0f401748 	jal	9d005d20 <__pop_ptr>
9d0033e4:	27a400a8 	addiu	a0,sp,168
9d0033e8:	8fa200b0 	lw	v0,176(sp)
9d0033ec:	24420001 	addiu	v0,v0,1
9d0033f0:	1000ffa5 	b	9d003288 <__printf_core+0x3c8>
9d0033f4:	afa200b0 	sw	v0,176(sp)
9d0033f8:	24020080 	li	v0,128
9d0033fc:	14a2fffb 	bne	a1,v0,9d0033ec <__printf_core+0x52c>
9d003400:	8fa200b0 	lw	v0,176(sp)
9d003404:	24420001 	addiu	v0,v0,1
9d003408:	afa200b0 	sw	v0,176(sp)
9d00340c:	8e220000 	lw	v0,0(s1)
9d003410:	24430004 	addiu	v1,v0,4
9d003414:	8c420000 	lw	v0,0(v0)
9d003418:	ae230000 	sw	v1,0(s1)
9d00341c:	a3a200a8 	sb	v0,168(sp)
9d003420:	24070001 	li	a3,1
9d003424:	1000ffe7 	b	9d0033c4 <__printf_core+0x504>
9d003428:	27a600a8 	addiu	a2,sp,168
9d00342c:	24020080 	li	v0,128
9d003430:	14a2ffee 	bne	a1,v0,9d0033ec <__printf_core+0x52c>
9d003434:	8fa200b0 	lw	v0,176(sp)
9d003438:	a3b400a8 	sb	s4,168(sp)
9d00343c:	24420001 	addiu	v0,v0,1
9d003440:	1000fff7 	b	9d003420 <__printf_core+0x560>
9d003444:	afa200b0 	sw	v0,176(sp)

Disassembly of section .text.dp32mul:

9d003448 <__divdf3>:
9d003448:	00055040 000a5542 00054ac0 00047d42     @P..BU...J..B}..
9d003458:	012f4825 000442c0 3c0e8000 012e4825     %H/..B.....<%H..
9d003468:	00076840 000d6d42 000762c0 00067d42     @h..Bm...b..B}..
9d003478:	018f6025 00065ac0 018e6025 00a72826     %`...Z..%`..&(..
9d003488:	00ae2824 254fffff 2de107fe 102000cb     $(....O%...-.. .
9d003498:	00000000                                ....

9d00349c <Dlab1>:
9d00349c:	25afffff 	addiu	t7,t5,-1
9d0034a0:	2de107fe 	sltiu	at,t7,2046
9d0034a4:	102000f4 	beqz	at,9d003878 <DspecB>
9d0034a8:	00000000 	nop

9d0034ac <Dlab2>:
9d0034ac:	014d5023 	subu	t2,t2,t5
9d0034b0:	254a03ff 	addiu	t2,t2,1023
9d0034b4:	00084042 	srl	t0,t0,0x1
9d0034b8:	00097fc0 	sll	t7,t1,0x1f
9d0034bc:	010f4025 	or	t0,t0,t7
9d0034c0:	00094842 	srl	t1,t1,0x1
9d0034c4:	000c3c02 	srl	a3,t4,0x10
9d0034c8:	00e001f4 	teq	a3,zero,0x7
9d0034cc:	0127001b 	divu	zero,t1,a3
9d0034d0:	00007012 	mflo	t6
9d0034d4:	00004810 	mfhi	t1
9d0034d8:	3186ffff 	andi	a2,t4,0xffff
9d0034dc:	00ce0019 	multu	a2,t6
9d0034e0:	00002012 	mflo	a0
9d0034e4:	00094c00 	sll	t1,t1,0x10
9d0034e8:	00087c02 	srl	t7,t0,0x10
9d0034ec:	012f4825 	or	t1,t1,t7
9d0034f0:	0124782b 	sltu	t7,t1,a0
9d0034f4:	11e00006 	beqz	t7,9d003510 <i20>
9d0034f8:	01244823 	subu	t1,t1,a0

9d0034fc <b21>:
9d0034fc:	25ceffff 	addiu	t6,t6,-1
9d003500:	012c4821 	addu	t1,t1,t4
9d003504:	012c082b 	sltu	at,t1,t4
9d003508:	1020fffc 	beqz	at,9d0034fc <b21>
9d00350c:	00000000 	nop

9d003510 <i20>:
9d003510:	00e001f4 	teq	a3,zero,0x7
9d003514:	0127001b 	divu	zero,t1,a3
9d003518:	00003812 	mflo	a3
9d00351c:	00004810 	mfhi	t1
9d003520:	00c70019 	multu	a2,a3
9d003524:	00002012 	mflo	a0
9d003528:	00094c00 	sll	t1,t1,0x10
9d00352c:	310fffff 	andi	t7,t0,0xffff
9d003530:	012f4825 	or	t1,t1,t7
9d003534:	0124782b 	sltu	t7,t1,a0
9d003538:	11e00006 	beqz	t7,9d003554 <i22>
9d00353c:	01244823 	subu	t1,t1,a0

9d003540 <b23>:
9d003540:	24e7ffff 	addiu	a3,a3,-1
9d003544:	012c4821 	addu	t1,t1,t4
9d003548:	012c082b 	sltu	at,t1,t4
9d00354c:	1020fffc 	beqz	at,9d003540 <b23>
9d003550:	00000000 	nop

9d003554 <i22>:
9d003554:	000e7400 	sll	t6,t6,0x10
9d003558:	01c77021 	addu	t6,t6,a3
9d00355c:	01cb0019 	multu	t6,t3
9d003560:	00003812 	mflo	a3
9d003564:	00002010 	mfhi	a0
9d003568:	24080000 	li	t0,0
9d00356c:	0107782b 	sltu	t7,t0,a3
9d003570:	01074023 	subu	t0,t0,a3
9d003574:	012f102b 	sltu	v0,t1,t7
9d003578:	012f4823 	subu	t1,t1,t7
9d00357c:	0124782b 	sltu	t7,t1,a0
9d003580:	01e27825 	or	t7,t7,v0
9d003584:	11e0000b 	beqz	t7,9d0035b4 <i24>
9d003588:	01244823 	subu	t1,t1,a0

9d00358c <Dlab3>:
9d00358c:	25ceffff 	addiu	t6,t6,-1
9d003590:	010b4021 	addu	t0,t0,t3
9d003594:	010b782b 	sltu	t7,t0,t3
9d003598:	012c4821 	addu	t1,t1,t4
9d00359c:	012f4821 	addu	t1,t1,t7
9d0035a0:	112c0002 	beq	t1,t4,9d0035ac <L31>
9d0035a4:	00000000 	nop
9d0035a8:	012c782b 	sltu	t7,t1,t4

9d0035ac <L31>:
9d0035ac:	11e0fff7 	beqz	t7,9d00358c <Dlab3>
9d0035b0:	00000000 	nop

9d0035b4 <i24>:
9d0035b4:	152c0006 	bne	t1,t4,9d0035d0 <i25>
9d0035b8:	00000000 	nop
9d0035bc:	000b2025 	or	a0,zero,t3
9d0035c0:	00084825 	or	t1,zero,t0
9d0035c4:	240d0000 	li	t5,0
9d0035c8:	1000002a 	b	9d003674 <e25>
9d0035cc:	000d3825 	or	a3,zero,t5

9d0035d0 <i25>:
9d0035d0:	000c3c02 	srl	a3,t4,0x10
9d0035d4:	00e001f4 	teq	a3,zero,0x7
9d0035d8:	0127001b 	divu	zero,t1,a3
9d0035dc:	00006812 	mflo	t5
9d0035e0:	00004810 	mfhi	t1
9d0035e4:	3186ffff 	andi	a2,t4,0xffff
9d0035e8:	00cd0019 	multu	a2,t5
9d0035ec:	00002012 	mflo	a0
9d0035f0:	00094c00 	sll	t1,t1,0x10
9d0035f4:	00087c02 	srl	t7,t0,0x10
9d0035f8:	012f4825 	or	t1,t1,t7
9d0035fc:	0124782b 	sltu	t7,t1,a0
9d003600:	11e00006 	beqz	t7,9d00361c <i26>
9d003604:	01244823 	subu	t1,t1,a0

9d003608 <b27>:
9d003608:	25adffff 	addiu	t5,t5,-1
9d00360c:	012c4821 	addu	t1,t1,t4
9d003610:	012c082b 	sltu	at,t1,t4
9d003614:	1020fffc 	beqz	at,9d003608 <b27>
9d003618:	00000000 	nop

9d00361c <i26>:
9d00361c:	00e001f4 	teq	a3,zero,0x7
9d003620:	0127001b 	divu	zero,t1,a3
9d003624:	00003812 	mflo	a3
9d003628:	00004810 	mfhi	t1
9d00362c:	00c70019 	multu	a2,a3
9d003630:	00002012 	mflo	a0
9d003634:	00094c00 	sll	t1,t1,0x10
9d003638:	310fffff 	andi	t7,t0,0xffff
9d00363c:	012f4825 	or	t1,t1,t7
9d003640:	0124782b 	sltu	t7,t1,a0
9d003644:	11e00006 	beqz	t7,9d003660 <i28>
9d003648:	01244823 	subu	t1,t1,a0

9d00364c <b29>:
9d00364c:	24e7ffff 	addiu	a3,a3,-1
9d003650:	012c4821 	addu	t1,t1,t4
9d003654:	012c082b 	sltu	at,t1,t4
9d003658:	1020fffc 	beqz	at,9d00364c <b29>
9d00365c:	00000000 	nop

9d003660 <i28>:
9d003660:	000d6c00 	sll	t5,t5,0x10
9d003664:	01a76821 	addu	t5,t5,a3
9d003668:	01ab0019 	multu	t5,t3
9d00366c:	00003812 	mflo	a3
9d003670:	00002010 	mfhi	a0

9d003674 <e25>:
9d003674:	24080000 	li	t0,0
9d003678:	0107782b 	sltu	t7,t0,a3
9d00367c:	01074023 	subu	t0,t0,a3
9d003680:	012f102b 	sltu	v0,t1,t7
9d003684:	012f4823 	subu	t1,t1,t7
9d003688:	0124782b 	sltu	t7,t1,a0
9d00368c:	01e27825 	or	t7,t7,v0
9d003690:	11e0000b 	beqz	t7,9d0036c0 <i30>
9d003694:	01244823 	subu	t1,t1,a0

9d003698 <Dlab4>:
9d003698:	25adffff 	addiu	t5,t5,-1
9d00369c:	010b4021 	addu	t0,t0,t3
9d0036a0:	010b782b 	sltu	t7,t0,t3
9d0036a4:	012c4821 	addu	t1,t1,t4
9d0036a8:	012f4821 	addu	t1,t1,t7
9d0036ac:	112c0002 	beq	t1,t4,9d0036b8 <L32>
9d0036b0:	00000000 	nop
9d0036b4:	012c782b 	sltu	t7,t1,t4

9d0036b8 <L32>:
9d0036b8:	11e0fff7 	beqz	t7,9d003698 <Dlab4>
9d0036bc:	00000000 	nop

9d0036c0 <i30>:
9d0036c0:	05c00006 	bltz	t6,9d0036dc <i31>
9d0036c4:	00000000 	nop
9d0036c8:	01a0782a 	slt	t7,t5,zero
9d0036cc:	01ad6821 	addu	t5,t5,t5
9d0036d0:	01ce7021 	addu	t6,t6,t6
9d0036d4:	01cf7021 	addu	t6,t6,t7
9d0036d8:	254affff 	addiu	t2,t2,-1

9d0036dc <i31>:
9d0036dc:	01287825 	or	t7,t1,t0
9d0036e0:	11e00002 	beqz	t7,9d0036ec <i32>
9d0036e4:	00000000 	nop
9d0036e8:	35ad0001 	ori	t5,t5,0x1

9d0036ec <i32>:
9d0036ec:	000e4825 	or	t1,zero,t6
9d0036f0:	000d4025 	or	t0,zero,t5
9d0036f4:	254fffff 	addiu	t7,t2,-1
9d0036f8:	2de107fe 	sltiu	at,t7,2046
9d0036fc:	10200015 	beqz	at,9d003754 <Doveund>
9d003700:	00000000 	nop
9d003704:	25080400 	addiu	t0,t0,1024
9d003708:	2d0f0400 	sltiu	t7,t0,1024
9d00370c:	012f4821 	addu	t1,t1,t7
9d003710:	012f782b 	sltu	t7,t1,t7
9d003714:	014f5021 	addu	t2,t2,t7

9d003718 <Dlab8>:
9d003718:	00087ac2 	srl	t7,t0,0xb
9d00371c:	31ef0001 	andi	t7,t7,0x1
9d003720:	010f4023 	subu	t0,t0,t7
9d003724:	000822c2 	srl	a0,t0,0xb
9d003728:	00097d40 	sll	t7,t1,0x15
9d00372c:	008f2025 	or	a0,a0,t7
9d003730:	00097840 	sll	t7,t1,0x1
9d003734:	000f7b02 	srl	t7,t7,0xc
9d003738:	00af2825 	or	a1,a1,t7
9d00373c:	000a7d00 	sll	t7,t2,0x14
9d003740:	00af2825 	or	a1,a1,t7

9d003744 <Dret>:
9d003744:	00041025 	or	v0,zero,a0
9d003748:	00051825 	or	v1,zero,a1

9d00374c <D999>:
9d00374c:	03e00008 	jr	ra
9d003750:	00000000 	nop

9d003754 <Doveund>:
9d003754:	1d400044 	bgtz	t2,9d003868 <Dinf>
9d003758:	00000000 	nop
9d00375c:	240e0001 	li	t6,1
9d003760:	01ca7023 	subu	t6,t6,t2

9d003764 <L33>:
9d003764:	2dc10020 	sltiu	at,t6,32
9d003768:	14200007 	bnez	at,9d003788 <L34>
9d00376c:	00000000 	nop
9d003770:	21ceffe0 	addi	t6,t6,-32
9d003774:	0008202b 	sltu	a0,zero,t0
9d003778:	1009000d 	beq	zero,t1,9d0037b0 <L35>
9d00377c:	01244025 	or	t0,t1,a0
9d003780:	1000fff8 	b	9d003764 <L33>
9d003784:	34090000 	li	t1,0x0

9d003788 <L34>:
9d003788:	11c00009 	beqz	t6,9d0037b0 <L35>
9d00378c:	00000000 	nop
9d003790:	000e3022 	neg	a2,t6
9d003794:	00c82004 	sllv	a0,t0,a2
9d003798:	00c93004 	sllv	a2,t1,a2
9d00379c:	01c84006 	srlv	t0,t0,t6
9d0037a0:	01c94806 	srlv	t1,t1,t6
9d0037a4:	10800002 	beqz	a0,9d0037b0 <L35>
9d0037a8:	00c84025 	or	t0,a2,t0
9d0037ac:	35080002 	ori	t0,t0,0x2

9d0037b0 <L35>:
9d0037b0:	25080400 	addiu	t0,t0,1024
9d0037b4:	2d0f0400 	sltiu	t7,t0,1024
9d0037b8:	012f4821 	addu	t1,t1,t7
9d0037bc:	1000ffd6 	b	9d003718 <Dlab8>
9d0037c0:	000957c2 	srl	t2,t1,0x1f

9d0037c4 <DspecA>:
9d0037c4:	0100782a 	slt	t7,t0,zero
9d0037c8:	01084021 	addu	t0,t0,t0
9d0037cc:	01294821 	addu	t1,t1,t1
9d0037d0:	15400017 	bnez	t2,9d003830 <i33>
9d0037d4:	012f4821 	addu	t1,t1,t7
9d0037d8:	01287825 	or	t7,t1,t0
9d0037dc:	11e00014 	beqz	t7,9d003830 <i33>
9d0037e0:	00000000 	nop
9d0037e4:	15200008 	bnez	t1,9d003808 <L36>
9d0037e8:	00000000 	nop
9d0037ec:	15000003 	bnez	t0,9d0037fc <L37>
9d0037f0:	00000000 	nop
9d0037f4:	1000ff29 	b	9d00349c <Dlab1>
9d0037f8:	240a0000 	li	t2,0

9d0037fc <L37>:
9d0037fc:	01004825 	move	t1,t0
9d003800:	24080000 	li	t0,0
9d003804:	254affe0 	addiu	t2,t2,-32

9d003808 <L36>:
9d003808:	712e7020 	clz	t6,t1
9d00380c:	11c0ff23 	beqz	t6,9d00349c <Dlab1>
9d003810:	00000000 	nop
9d003814:	014e5023 	subu	t2,t2,t6
9d003818:	000e3022 	neg	a2,t6
9d00381c:	00c83006 	srlv	a2,t0,a2
9d003820:	01c84004 	sllv	t0,t0,t6
9d003824:	01c94804 	sllv	t1,t1,t6
9d003828:	1000ff1c 	b	9d00349c <Dlab1>
9d00382c:	01264825 	or	t1,t1,a2

9d003830 <i33>:
9d003830:	154d0005 	bne	t2,t5,9d003848 <i35>
9d003834:	00000000 	nop
9d003838:	000c7840 	sll	t7,t4,0x1
9d00383c:	01eb7825 	or	t7,t7,t3
9d003840:	11e0002b 	beqz	t7,9d0038f0 <Dnan>
9d003844:	00000000 	nop

9d003848 <i35>:
9d003848:	240107ff 	li	at,2047
9d00384c:	11a1000a 	beq	t5,at,9d003878 <DspecB>
9d003850:	00000000 	nop
9d003854:	1140ffbb 	beqz	t2,9d003744 <Dret>
9d003858:	00000000 	nop
9d00385c:	01287825 	or	t7,t1,t0
9d003860:	15e00023 	bnez	t7,9d0038f0 <Dnan>
9d003864:	00000000 	nop

9d003868 <Dinf>:
9d003868:	3c017ff0 	lui	at,0x7ff0
9d00386c:	00a12825 	or	a1,a1,at
9d003870:	1000ffb4 	b	9d003744 <Dret>
9d003874:	24040000 	li	a0,0

9d003878 <DspecB>:
9d003878:	0160782a 	slt	t7,t3,zero
9d00387c:	016b5821 	addu	t3,t3,t3
9d003880:	018c6021 	addu	t4,t4,t4
9d003884:	15a00017 	bnez	t5,9d0038e4 <i36>
9d003888:	018f6021 	addu	t4,t4,t7
9d00388c:	018b7825 	or	t7,t4,t3
9d003890:	11e0fff5 	beqz	t7,9d003868 <Dinf>
9d003894:	00000000 	nop
9d003898:	15800008 	bnez	t4,9d0038bc <L39>
9d00389c:	00000000 	nop
9d0038a0:	15600003 	bnez	t3,9d0038b0 <L40>
9d0038a4:	00000000 	nop
9d0038a8:	1000ff00 	b	9d0034ac <Dlab2>
9d0038ac:	240d0000 	li	t5,0

9d0038b0 <L40>:
9d0038b0:	01606025 	move	t4,t3
9d0038b4:	240b0000 	li	t3,0
9d0038b8:	25adffe0 	addiu	t5,t5,-32

9d0038bc <L39>:
9d0038bc:	718e7020 	clz	t6,t4
9d0038c0:	11c0fefa 	beqz	t6,9d0034ac <Dlab2>
9d0038c4:	00000000 	nop
9d0038c8:	01ae6823 	subu	t5,t5,t6
9d0038cc:	000e3022 	neg	a2,t6
9d0038d0:	00cb3006 	srlv	a2,t3,a2
9d0038d4:	01cb5804 	sllv	t3,t3,t6
9d0038d8:	01cc6004 	sllv	t4,t4,t6
9d0038dc:	1000fef3 	b	9d0034ac <Dlab2>
9d0038e0:	01866025 	or	t4,t4,a2

9d0038e4 <i36>:
9d0038e4:	018b7825 	or	t7,t4,t3
9d0038e8:	11e00002 	beqz	t7,9d0038f4 <i38>
9d0038ec:	00000000 	nop

9d0038f0 <Dnan>:
9d0038f0:	3c05fff8 	lui	a1,0xfff8

9d0038f4 <i38>:
9d0038f4:	1000ff93 	b	9d003744 <Dret>
9d0038f8:	24040000 	li	a0,0
9d0038fc:	00000000 	nop

Disassembly of section .text.dp32subadd:

9d003900 <__subdf3>:
9d003900:	3c018000 00e13826                       ...<&8..

9d003908 <__adddf3>:
9d003908:	00055840 000b5d42 000552c0 00047d42     @X..B]...R..B}..
9d003918:	014f5025 00044ac0 3c088000 01485025     %PO..J.....<%PH.
9d003928:	00077040 000e7542 00076ac0 00067d42     @p..Bu...j..B}..
9d003938:	01af6825 000662c0 01a86825 256fffff     %h...b..%h....o%
9d003948:	2de107fe 1020008d 00000000              ...-.. .....

9d003954 <Blab1>:
9d003954:	25cfffff 	addiu	t7,t6,-1
9d003958:	2de107fe 	sltiu	at,t7,2046
9d00395c:	102000bb 	beqz	at,9d003c4c <BspecB>
9d003960:	00000000 	nop

9d003964 <Blab2>:
9d003964:	3c018000 	lui	at,0x8000
9d003968:	00a12824 	and	a1,a1,at
9d00396c:	016e4023 	subu	t0,t3,t6
9d003970:	1100002c 	beqz	t0,9d003a24 <Badd3>
9d003974:	00000000 	nop
9d003978:	19000015 	blez	t0,9d0039d0 <i1>
9d00397c:	00000000 	nop

9d003980 <L1>:
9d003980:	2d010020 	sltiu	at,t0,32
9d003984:	14200007 	bnez	at,9d0039a4 <L2>
9d003988:	00000000 	nop
9d00398c:	2108ffe0 	addi	t0,t0,-32
9d003990:	000c302b 	sltu	a2,zero,t4
9d003994:	100d0023 	beq	zero,t5,9d003a24 <Badd3>
9d003998:	01a66025 	or	t4,t5,a2
9d00399c:	1000fff8 	b	9d003980 <L1>
9d0039a0:	340d0000 	li	t5,0x0

9d0039a4 <L2>:
9d0039a4:	1100001f 	beqz	t0,9d003a24 <Badd3>
9d0039a8:	00000000 	nop
9d0039ac:	00082022 	neg	a0,t0
9d0039b0:	008c3004 	sllv	a2,t4,a0
9d0039b4:	008d2004 	sllv	a0,t5,a0
9d0039b8:	010c6006 	srlv	t4,t4,t0
9d0039bc:	010d6806 	srlv	t5,t5,t0
9d0039c0:	10c00018 	beqz	a2,9d003a24 <Badd3>
9d0039c4:	008c6025 	or	t4,a0,t4
9d0039c8:	10000016 	b	9d003a24 <Badd3>
9d0039cc:	358c0002 	ori	t4,t4,0x2

9d0039d0 <i1>:
9d0039d0:	000e5825 	or	t3,zero,t6
9d0039d4:	00084023 	negu	t0,t0

9d0039d8 <L4>:
9d0039d8:	2d010020 	sltiu	at,t0,32
9d0039dc:	14200007 	bnez	at,9d0039fc <L5>
9d0039e0:	00000000 	nop
9d0039e4:	2108ffe0 	addi	t0,t0,-32
9d0039e8:	0009302b 	sltu	a2,zero,t1
9d0039ec:	100a000d 	beq	zero,t2,9d003a24 <Badd3>
9d0039f0:	01464825 	or	t1,t2,a2
9d0039f4:	1000fff8 	b	9d0039d8 <L4>
9d0039f8:	340a0000 	li	t2,0x0

9d0039fc <L5>:
9d0039fc:	11000009 	beqz	t0,9d003a24 <Badd3>
9d003a00:	00000000 	nop
9d003a04:	00082022 	neg	a0,t0
9d003a08:	00893004 	sllv	a2,t1,a0
9d003a0c:	008a2004 	sllv	a0,t2,a0
9d003a10:	01094806 	srlv	t1,t1,t0
9d003a14:	010a5006 	srlv	t2,t2,t0
9d003a18:	10c00002 	beqz	a2,9d003a24 <Badd3>
9d003a1c:	00894825 	or	t1,a0,t1
9d003a20:	35290002 	ori	t1,t1,0x2

9d003a24 <Badd3>:
9d003a24:	00a77826 	xor	t7,a1,a3
9d003a28:	05e0001c 	bltz	t7,9d003a9c <Bsub1>
9d003a2c:	00000000 	nop
9d003a30:	012c4821 	addu	t1,t1,t4
9d003a34:	012c782b 	sltu	t7,t1,t4
9d003a38:	014d5021 	addu	t2,t2,t5
9d003a3c:	014f5021 	addu	t2,t2,t7
9d003a40:	114d0002 	beq	t2,t5,9d003a4c <L7>
9d003a44:	00000000 	nop
9d003a48:	014d782b 	sltu	t7,t2,t5

9d003a4c <L7>:
9d003a4c:	11e00037 	beqz	t7,9d003b2c <Bres>
9d003a50:	00000000 	nop
9d003a54:	312f0001 	andi	t7,t1,0x1
9d003a58:	11e00002 	beqz	t7,9d003a64 <i3>
9d003a5c:	00000000 	nop
9d003a60:	35290002 	ori	t1,t1,0x2

9d003a64 <i3>:
9d003a64:	00094842 	srl	t1,t1,0x1
9d003a68:	000a7fc0 	sll	t7,t2,0x1f
9d003a6c:	012f4825 	or	t1,t1,t7
9d003a70:	000a5042 	srl	t2,t2,0x1
9d003a74:	3c018000 	lui	at,0x8000
9d003a78:	01415025 	or	t2,t2,at
9d003a7c:	256b0001 	addiu	t3,t3,1
9d003a80:	240107ff 	li	at,2047
9d003a84:	15610029 	bne	t3,at,9d003b2c <Bres>
9d003a88:	00000000 	nop
9d003a8c:	3c017ff0 	lui	at,0x7ff0
9d003a90:	00a12825 	or	a1,a1,at
9d003a94:	10000037 	b	9d003b74 <BretA>
9d003a98:	24040000 	li	a0,0

9d003a9c <Bsub1>:
9d003a9c:	012c782b 	sltu	t7,t1,t4
9d003aa0:	012c4823 	subu	t1,t1,t4
9d003aa4:	014f102b 	sltu	v0,t2,t7
9d003aa8:	014f5023 	subu	t2,t2,t7
9d003aac:	014d782b 	sltu	t7,t2,t5
9d003ab0:	01e27825 	or	t7,t7,v0
9d003ab4:	11e00007 	beqz	t7,9d003ad4 <i5>
9d003ab8:	014d5023 	subu	t2,t2,t5
9d003abc:	3c018000 	lui	at,0x8000
9d003ac0:	00a12826 	xor	a1,a1,at
9d003ac4:	0009782b 	sltu	t7,zero,t1
9d003ac8:	00094823 	negu	t1,t1
9d003acc:	000a5023 	negu	t2,t2
9d003ad0:	014f5023 	subu	t2,t2,t7

9d003ad4 <i5>:
9d003ad4:	15400008 	bnez	t2,9d003af8 <L8>
9d003ad8:	00000000 	nop
9d003adc:	15200003 	bnez	t1,9d003aec <L9>
9d003ae0:	00000000 	nop
9d003ae4:	1000000d 	b	9d003b1c <L10>
9d003ae8:	240b0000 	li	t3,0

9d003aec <L9>:
9d003aec:	01205025 	move	t2,t1
9d003af0:	24090000 	li	t1,0
9d003af4:	256bffe0 	addiu	t3,t3,-32

9d003af8 <L8>:
9d003af8:	71484020 	clz	t0,t2
9d003afc:	11000007 	beqz	t0,9d003b1c <L10>
9d003b00:	00000000 	nop
9d003b04:	01685823 	subu	t3,t3,t0
9d003b08:	00082022 	neg	a0,t0
9d003b0c:	00892006 	srlv	a0,t1,a0
9d003b10:	01094804 	sllv	t1,t1,t0
9d003b14:	010a5004 	sllv	t2,t2,t0
9d003b18:	01445025 	or	t2,t2,a0

9d003b1c <L10>:
9d003b1c:	01497825 	or	t7,t2,t1
9d003b20:	15e00002 	bnez	t7,9d003b2c <Bres>
9d003b24:	00000000 	nop
9d003b28:	24050000 	li	a1,0

9d003b2c <Bres>:
9d003b2c:	19600068 	blez	t3,9d003cd0 <Bund>
9d003b30:	00000000 	nop

9d003b34 <Blab8>:
9d003b34:	25290400 	addiu	t1,t1,1024
9d003b38:	2d2f0400 	sltiu	t7,t1,1024
9d003b3c:	014f5021 	addu	t2,t2,t7
9d003b40:	014f782b 	sltu	t7,t2,t7
9d003b44:	016f5821 	addu	t3,t3,t7
9d003b48:	00097ac2 	srl	t7,t1,0xb
9d003b4c:	31ef0001 	andi	t7,t7,0x1
9d003b50:	012f4823 	subu	t1,t1,t7
9d003b54:	000922c2 	srl	a0,t1,0xb
9d003b58:	000a7d40 	sll	t7,t2,0x15
9d003b5c:	008f2025 	or	a0,a0,t7
9d003b60:	000a7840 	sll	t7,t2,0x1
9d003b64:	000f7b02 	srl	t7,t7,0xc
9d003b68:	00af2825 	or	a1,a1,t7
9d003b6c:	000b7d00 	sll	t7,t3,0x14
9d003b70:	00af2825 	or	a1,a1,t7

9d003b74 <BretA>:
9d003b74:	00041025 	or	v0,zero,a0
9d003b78:	00051825 	or	v1,zero,a1

9d003b7c <B999>:
9d003b7c:	03e00008 	jr	ra
9d003b80:	00000000 	nop

9d003b84 <BspecA>:
9d003b84:	0120782a 	slt	t7,t1,zero
9d003b88:	01294821 	addu	t1,t1,t1
9d003b8c:	014a5021 	addu	t2,t2,t2
9d003b90:	15600023 	bnez	t3,9d003c20 <i7>
9d003b94:	014f5021 	addu	t2,t2,t7
9d003b98:	01497825 	or	t7,t2,t1
9d003b9c:	11e00014 	beqz	t7,9d003bf0 <i8>
9d003ba0:	00000000 	nop
9d003ba4:	15400008 	bnez	t2,9d003bc8 <L11>
9d003ba8:	00000000 	nop
9d003bac:	15200003 	bnez	t1,9d003bbc <L12>
9d003bb0:	00000000 	nop
9d003bb4:	1000ff67 	b	9d003954 <Blab1>
9d003bb8:	240b0000 	li	t3,0

9d003bbc <L12>:
9d003bbc:	01205025 	move	t2,t1
9d003bc0:	24090000 	li	t1,0
9d003bc4:	256bffe0 	addiu	t3,t3,-32

9d003bc8 <L11>:
9d003bc8:	71484020 	clz	t0,t2
9d003bcc:	1100ff61 	beqz	t0,9d003954 <Blab1>
9d003bd0:	00000000 	nop
9d003bd4:	01685823 	subu	t3,t3,t0
9d003bd8:	00082022 	neg	a0,t0
9d003bdc:	00892006 	srlv	a0,t1,a0
9d003be0:	01094804 	sllv	t1,t1,t0
9d003be4:	010a5004 	sllv	t2,t2,t0
9d003be8:	1000ff5a 	b	9d003954 <Blab1>
9d003bec:	01445025 	or	t2,t2,a0

9d003bf0 <i8>:
9d003bf0:	240107ff 	li	at,2047
9d003bf4:	11c10015 	beq	t6,at,9d003c4c <BspecB>
9d003bf8:	00000000 	nop
9d003bfc:	00e74021 	addu	t0,a3,a3
9d003c00:	01067825 	or	t7,t0,a2
9d003c04:	15e00003 	bnez	t7,9d003c14 <BretB>
9d003c08:	00000000 	nop
9d003c0c:	04e0ffd9 	bltz	a3,9d003b74 <BretA>
9d003c10:	00000000 	nop

9d003c14 <BretB>:
9d003c14:	00061025 	or	v0,zero,a2
9d003c18:	1000ffd8 	b	9d003b7c <B999>
9d003c1c:	00071825 	or	v1,zero,a3

9d003c20 <i7>:
9d003c20:	01497825 	or	t7,t2,t1
9d003c24:	15e00027 	bnez	t7,9d003cc4 <Bnan>
9d003c28:	00000000 	nop
9d003c2c:	240107ff 	li	at,2047
9d003c30:	15c1ffd0 	bne	t6,at,9d003b74 <BretA>
9d003c34:	00000000 	nop
9d003c38:	00a77826 	xor	t7,a1,a3
9d003c3c:	05e00021 	bltz	t7,9d003cc4 <Bnan>
9d003c40:	00000000 	nop
9d003c44:	1000fff3 	b	9d003c14 <BretB>
9d003c48:	00000000 	nop

9d003c4c <BspecB>:
9d003c4c:	0180782a 	slt	t7,t4,zero
9d003c50:	018c6021 	addu	t4,t4,t4
9d003c54:	01ad6821 	addu	t5,t5,t5
9d003c58:	15c00017 	bnez	t6,9d003cb8 <i11>
9d003c5c:	01af6821 	addu	t5,t5,t7
9d003c60:	01ac7825 	or	t7,t5,t4
9d003c64:	11e0ffc3 	beqz	t7,9d003b74 <BretA>
9d003c68:	00000000 	nop
9d003c6c:	15a00008 	bnez	t5,9d003c90 <L14>
9d003c70:	00000000 	nop
9d003c74:	15800003 	bnez	t4,9d003c84 <L15>
9d003c78:	00000000 	nop
9d003c7c:	1000ff39 	b	9d003964 <Blab2>
9d003c80:	240e0000 	li	t6,0

9d003c84 <L15>:
9d003c84:	01806825 	move	t5,t4
9d003c88:	240c0000 	li	t4,0
9d003c8c:	25ceffe0 	addiu	t6,t6,-32

9d003c90 <L14>:
9d003c90:	71a84020 	clz	t0,t5
9d003c94:	1100ff33 	beqz	t0,9d003964 <Blab2>
9d003c98:	00000000 	nop
9d003c9c:	01c87023 	subu	t6,t6,t0
9d003ca0:	00082022 	neg	a0,t0
9d003ca4:	008c2006 	srlv	a0,t4,a0
9d003ca8:	010c6004 	sllv	t4,t4,t0
9d003cac:	010d6804 	sllv	t5,t5,t0
9d003cb0:	1000ff2c 	b	9d003964 <Blab2>
9d003cb4:	01a46825 	or	t5,t5,a0

9d003cb8 <i11>:
9d003cb8:	01ac7825 	or	t7,t5,t4
9d003cbc:	11e0ffd5 	beqz	t7,9d003c14 <BretB>
9d003cc0:	00000000 	nop

9d003cc4 <Bnan>:
9d003cc4:	3c05fff8 	lui	a1,0xfff8
9d003cc8:	1000ffaa 	b	9d003b74 <BretA>
9d003ccc:	24040000 	li	a0,0

9d003cd0 <Bund>:
9d003cd0:	24080001 	li	t0,1
9d003cd4:	010b4023 	subu	t0,t0,t3

9d003cd8 <L17>:
9d003cd8:	2d010020 	sltiu	at,t0,32
9d003cdc:	14200007 	bnez	at,9d003cfc <L18>
9d003ce0:	00000000 	nop
9d003ce4:	2108ffe0 	addi	t0,t0,-32
9d003ce8:	0009302b 	sltu	a2,zero,t1
9d003cec:	100a000d 	beq	zero,t2,9d003d24 <L19>
9d003cf0:	01464825 	or	t1,t2,a2
9d003cf4:	1000fff8 	b	9d003cd8 <L17>
9d003cf8:	340a0000 	li	t2,0x0

9d003cfc <L18>:
9d003cfc:	11000009 	beqz	t0,9d003d24 <L19>
9d003d00:	00000000 	nop
9d003d04:	00082022 	neg	a0,t0
9d003d08:	00893004 	sllv	a2,t1,a0
9d003d0c:	008a2004 	sllv	a0,t2,a0
9d003d10:	01094806 	srlv	t1,t1,t0
9d003d14:	010a5006 	srlv	t2,t2,t0
9d003d18:	10c00002 	beqz	a2,9d003d24 <L19>
9d003d1c:	00894825 	or	t1,a0,t1
9d003d20:	35290002 	ori	t1,t1,0x2

9d003d24 <L19>:
9d003d24:	1000ff83 	b	9d003b34 <Blab8>
9d003d28:	240b0000 	li	t3,0
9d003d2c:	00000000 	nop

Disassembly of section .text:

9d003d30 <__umoddi3>:
9d003d30:	00c04825 	move	t1,a2
9d003d34:	00801025 	move	v0,a0
9d003d38:	14e00099 	bnez	a3,9d003fa0 <__umoddi3+0x270>
9d003d3c:	00a01825 	move	v1,a1
9d003d40:	00a6302b 	sltu	a2,a1,a2
9d003d44:	10c00034 	beqz	a2,9d003e18 <__umoddi3+0xe8>
9d003d48:	712a5020 	clz	t2,t1
9d003d4c:	51400008 	beqzl	t2,9d003d70 <__umoddi3+0x40>
9d003d50:	00092402 	srl	a0,t1,0x10
9d003d54:	01451804 	sllv	v1,a1,t2
9d003d58:	000a2823 	negu	a1,t2
9d003d5c:	00a42806 	srlv	a1,a0,a1
9d003d60:	01494804 	sllv	t1,t1,t2
9d003d64:	00a31825 	or	v1,a1,v1
9d003d68:	01441004 	sllv	v0,a0,t2
9d003d6c:	00092402 	srl	a0,t1,0x10
9d003d70:	0064001b 	divu	zero,v1,a0
9d003d74:	008001f4 	teq	a0,zero,0x7
9d003d78:	3127ffff 	andi	a3,t1,0xffff
9d003d7c:	00001812 	mflo	v1
9d003d80:	00002810 	mfhi	a1
9d003d84:	70673002 	mul	a2,v1,a3
9d003d88:	00051c00 	sll	v1,a1,0x10
9d003d8c:	00022c02 	srl	a1,v0,0x10
9d003d90:	00651825 	or	v1,v1,a1
9d003d94:	0066282b 	sltu	a1,v1,a2
9d003d98:	50a00009 	beqzl	a1,9d003dc0 <__umoddi3+0x90>
9d003d9c:	00661823 	subu	v1,v1,a2
9d003da0:	00691821 	addu	v1,v1,t1
9d003da4:	0069282b 	sltu	a1,v1,t1
9d003da8:	54a00005 	bnezl	a1,9d003dc0 <__umoddi3+0x90>
9d003dac:	00661823 	subu	v1,v1,a2
9d003db0:	0066282b 	sltu	a1,v1,a2
9d003db4:	54a00001 	bnezl	a1,9d003dbc <__umoddi3+0x8c>
9d003db8:	00691821 	addu	v1,v1,t1
9d003dbc:	00661823 	subu	v1,v1,a2
9d003dc0:	0064001b 	divu	zero,v1,a0
9d003dc4:	008001f4 	teq	a0,zero,0x7
9d003dc8:	3042ffff 	andi	v0,v0,0xffff
9d003dcc:	00001812 	mflo	v1
9d003dd0:	00003010 	mfhi	a2
9d003dd4:	70672002 	mul	a0,v1,a3
9d003dd8:	00061c00 	sll	v1,a2,0x10
9d003ddc:	00621025 	or	v0,v1,v0
9d003de0:	0044182b 	sltu	v1,v0,a0
9d003de4:	50600009 	beqzl	v1,9d003e0c <__umoddi3+0xdc>
9d003de8:	00441023 	subu	v0,v0,a0
9d003dec:	00491021 	addu	v0,v0,t1
9d003df0:	0049182b 	sltu	v1,v0,t1
9d003df4:	54600005 	bnezl	v1,9d003e0c <__umoddi3+0xdc>
9d003df8:	00441023 	subu	v0,v0,a0
9d003dfc:	0044182b 	sltu	v1,v0,a0
9d003e00:	54600001 	bnezl	v1,9d003e08 <__umoddi3+0xd8>
9d003e04:	00491021 	addu	v0,v0,t1
9d003e08:	00441023 	subu	v0,v0,a0
9d003e0c:	01421006 	srlv	v0,v0,t2
9d003e10:	03e00008 	jr	ra
9d003e14:	00001825 	move	v1,zero
9d003e18:	15200005 	bnez	t1,9d003e30 <__umoddi3+0x100>
9d003e1c:	24030001 	li	v1,1
9d003e20:	0069001b 	divu	zero,v1,t1
9d003e24:	012001f4 	teq	t1,zero,0x7
9d003e28:	00004812 	mflo	t1
9d003e2c:	712a5020 	clz	t2,t1
9d003e30:	1540002b 	bnez	t2,9d003ee0 <__umoddi3+0x1b0>
9d003e34:	24070020 	li	a3,32
9d003e38:	00a92823 	subu	a1,a1,t1
9d003e3c:	00092402 	srl	a0,t1,0x10
9d003e40:	00a4001b 	divu	zero,a1,a0
9d003e44:	008001f4 	teq	a0,zero,0x7
9d003e48:	3127ffff 	andi	a3,t1,0xffff
9d003e4c:	00002812 	mflo	a1
9d003e50:	00001810 	mfhi	v1
9d003e54:	70a73002 	mul	a2,a1,a3
9d003e58:	00032c00 	sll	a1,v1,0x10
9d003e5c:	00021c02 	srl	v1,v0,0x10
9d003e60:	00a32825 	or	a1,a1,v1
9d003e64:	00a6182b 	sltu	v1,a1,a2
9d003e68:	50600009 	beqzl	v1,9d003e90 <__umoddi3+0x160>
9d003e6c:	00a63023 	subu	a2,a1,a2
9d003e70:	00a92821 	addu	a1,a1,t1
9d003e74:	00a9182b 	sltu	v1,a1,t1
9d003e78:	54600005 	bnezl	v1,9d003e90 <__umoddi3+0x160>
9d003e7c:	00a63023 	subu	a2,a1,a2
9d003e80:	00a6182b 	sltu	v1,a1,a2
9d003e84:	54600001 	bnezl	v1,9d003e8c <__umoddi3+0x15c>
9d003e88:	00a92821 	addu	a1,a1,t1
9d003e8c:	00a63023 	subu	a2,a1,a2
9d003e90:	00c4001b 	divu	zero,a2,a0
9d003e94:	008001f4 	teq	a0,zero,0x7
9d003e98:	3042ffff 	andi	v0,v0,0xffff
9d003e9c:	00003012 	mflo	a2
9d003ea0:	00002810 	mfhi	a1
9d003ea4:	70c71802 	mul	v1,a2,a3
9d003ea8:	00053400 	sll	a2,a1,0x10
9d003eac:	00c21025 	or	v0,a2,v0
9d003eb0:	0043202b 	sltu	a0,v0,v1
9d003eb4:	5080ffd5 	beqzl	a0,9d003e0c <__umoddi3+0xdc>
9d003eb8:	00431023 	subu	v0,v0,v1
9d003ebc:	00491021 	addu	v0,v0,t1
9d003ec0:	0049202b 	sltu	a0,v0,t1
9d003ec4:	5480ffd1 	bnezl	a0,9d003e0c <__umoddi3+0xdc>
9d003ec8:	00431023 	subu	v0,v0,v1
9d003ecc:	0043202b 	sltu	a0,v0,v1
9d003ed0:	54800001 	bnezl	a0,9d003ed8 <__umoddi3+0x1a8>
9d003ed4:	00491021 	addu	v0,v0,t1
9d003ed8:	1000ffcc 	b	9d003e0c <__umoddi3+0xdc>
9d003edc:	00431023 	subu	v0,v0,v1
9d003ee0:	00ea3823 	subu	a3,a3,t2
9d003ee4:	01494804 	sllv	t1,t1,t2
9d003ee8:	00e41806 	srlv	v1,a0,a3
9d003eec:	00093402 	srl	a2,t1,0x10
9d003ef0:	00e53806 	srlv	a3,a1,a3
9d003ef4:	00e6001b 	divu	zero,a3,a2
9d003ef8:	00c001f4 	teq	a2,zero,0x7
9d003efc:	01451004 	sllv	v0,a1,t2
9d003f00:	312bffff 	andi	t3,t1,0xffff
9d003f04:	00621825 	or	v1,v1,v0
9d003f08:	01441004 	sllv	v0,a0,t2
9d003f0c:	00032c02 	srl	a1,v1,0x10
9d003f10:	00003812 	mflo	a3
9d003f14:	00002010 	mfhi	a0
9d003f18:	70eb4002 	mul	t0,a3,t3
9d003f1c:	00043c00 	sll	a3,a0,0x10
9d003f20:	00e53825 	or	a3,a3,a1
9d003f24:	00e8202b 	sltu	a0,a3,t0
9d003f28:	50800009 	beqzl	a0,9d003f50 <__umoddi3+0x220>
9d003f2c:	00e83823 	subu	a3,a3,t0
9d003f30:	00e93821 	addu	a3,a3,t1
9d003f34:	00e9202b 	sltu	a0,a3,t1
9d003f38:	54800005 	bnezl	a0,9d003f50 <__umoddi3+0x220>
9d003f3c:	00e83823 	subu	a3,a3,t0
9d003f40:	00e8202b 	sltu	a0,a3,t0
9d003f44:	54800001 	bnezl	a0,9d003f4c <__umoddi3+0x21c>
9d003f48:	00e93821 	addu	a3,a3,t1
9d003f4c:	00e83823 	subu	a3,a3,t0
9d003f50:	00e6001b 	divu	zero,a3,a2
9d003f54:	00c001f4 	teq	a2,zero,0x7
9d003f58:	3065ffff 	andi	a1,v1,0xffff
9d003f5c:	00003012 	mflo	a2
9d003f60:	00003810 	mfhi	a3
9d003f64:	00073c00 	sll	a3,a3,0x10
9d003f68:	00e52825 	or	a1,a3,a1
9d003f6c:	70cb3002 	mul	a2,a2,t3
9d003f70:	00a6182b 	sltu	v1,a1,a2
9d003f74:	5060ffb1 	beqzl	v1,9d003e3c <__umoddi3+0x10c>
9d003f78:	00a62823 	subu	a1,a1,a2
9d003f7c:	00a92821 	addu	a1,a1,t1
9d003f80:	00a9182b 	sltu	v1,a1,t1
9d003f84:	5460ffad 	bnezl	v1,9d003e3c <__umoddi3+0x10c>
9d003f88:	00a62823 	subu	a1,a1,a2
9d003f8c:	00a6182b 	sltu	v1,a1,a2
9d003f90:	54600001 	bnezl	v1,9d003f98 <__umoddi3+0x268>
9d003f94:	00a92821 	addu	a1,a1,t1
9d003f98:	1000ffa8 	b	9d003e3c <__umoddi3+0x10c>
9d003f9c:	00a62823 	subu	a1,a1,a2
9d003fa0:	00a7402b 	sltu	t0,a1,a3
9d003fa4:	1500005e 	bnez	t0,9d004120 <__umoddi3+0x3f0>
9d003fa8:	70ee7020 	clz	t6,a3
9d003fac:	15c0000c 	bnez	t6,9d003fe0 <__umoddi3+0x2b0>
9d003fb0:	240b0020 	li	t3,32
9d003fb4:	00e5402b 	sltu	t0,a3,a1
9d003fb8:	55000005 	bnezl	t0,9d003fd0 <__umoddi3+0x2a0>
9d003fbc:	00861023 	subu	v0,a0,a2
9d003fc0:	0086402b 	sltu	t0,a0,a2
9d003fc4:	15000056 	bnez	t0,9d004120 <__umoddi3+0x3f0>
9d003fc8:	00000000 	nop
9d003fcc:	00861023 	subu	v0,a0,a2
9d003fd0:	00a72823 	subu	a1,a1,a3
9d003fd4:	0082182b 	sltu	v1,a0,v0
9d003fd8:	03e00008 	jr	ra
9d003fdc:	00a31823 	subu	v1,a1,v1
9d003fe0:	016e5823 	subu	t3,t3,t6
9d003fe4:	01666006 	srlv	t4,a2,t3
9d003fe8:	01c73804 	sllv	a3,a3,t6
9d003fec:	01873825 	or	a3,t4,a3
9d003ff0:	01c51804 	sllv	v1,a1,t6
9d003ff4:	00074c02 	srl	t1,a3,0x10
9d003ff8:	01652806 	srlv	a1,a1,t3
9d003ffc:	00a9001b 	divu	zero,a1,t1
9d004000:	012001f4 	teq	t1,zero,0x7
9d004004:	01c61004 	sllv	v0,a2,t6
9d004008:	30e8ffff 	andi	t0,a3,0xffff
9d00400c:	01643006 	srlv	a2,a0,t3
9d004010:	00c33025 	or	a2,a2,v1
9d004014:	00066402 	srl	t4,a2,0x10
9d004018:	01c42004 	sllv	a0,a0,t6
9d00401c:	00002812 	mflo	a1
9d004020:	00005010 	mfhi	t2
9d004024:	000a5400 	sll	t2,t2,0x10
9d004028:	014c5025 	or	t2,t2,t4
9d00402c:	71051802 	mul	v1,t0,a1
9d004030:	0143602b 	sltu	t4,t2,v1
9d004034:	1180000a 	beqz	t4,9d004060 <__umoddi3+0x330>
9d004038:	00a06825 	move	t5,a1
9d00403c:	01475021 	addu	t2,t2,a3
9d004040:	0147602b 	sltu	t4,t2,a3
9d004044:	15800006 	bnez	t4,9d004060 <__umoddi3+0x330>
9d004048:	24adffff 	addiu	t5,a1,-1
9d00404c:	0143602b 	sltu	t4,t2,v1
9d004050:	51800004 	beqzl	t4,9d004064 <__umoddi3+0x334>
9d004054:	01435023 	subu	t2,t2,v1
9d004058:	24adfffe 	addiu	t5,a1,-2
9d00405c:	01475021 	addu	t2,t2,a3
9d004060:	01435023 	subu	t2,t2,v1
9d004064:	0149001b 	divu	zero,t2,t1
9d004068:	012001f4 	teq	t1,zero,0x7
9d00406c:	00004812 	mflo	t1
9d004070:	00005010 	mfhi	t2
9d004074:	000a5400 	sll	t2,t2,0x10
9d004078:	71091802 	mul	v1,t0,t1
9d00407c:	30c8ffff 	andi	t0,a2,0xffff
9d004080:	01484025 	or	t0,t2,t0
9d004084:	0103302b 	sltu	a2,t0,v1
9d004088:	10c0000a 	beqz	a2,9d0040b4 <__umoddi3+0x384>
9d00408c:	01202825 	move	a1,t1
9d004090:	01074021 	addu	t0,t0,a3
9d004094:	0107302b 	sltu	a2,t0,a3
9d004098:	14c00006 	bnez	a2,9d0040b4 <__umoddi3+0x384>
9d00409c:	2525ffff 	addiu	a1,t1,-1
9d0040a0:	0103302b 	sltu	a2,t0,v1
9d0040a4:	10c00004 	beqz	a2,9d0040b8 <__umoddi3+0x388>
9d0040a8:	000d6400 	sll	t4,t5,0x10
9d0040ac:	2525fffe 	addiu	a1,t1,-2
9d0040b0:	01074021 	addu	t0,t0,a3
9d0040b4:	000d6400 	sll	t4,t5,0x10
9d0040b8:	01856025 	or	t4,t4,a1
9d0040bc:	01820019 	multu	t4,v0
9d0040c0:	01034023 	subu	t0,t0,v1
9d0040c4:	00006810 	mfhi	t5
9d0040c8:	010d282b 	sltu	a1,t0,t5
9d0040cc:	01a01825 	move	v1,t5
9d0040d0:	00006012 	mflo	t4
9d0040d4:	14a00006 	bnez	a1,9d0040f0 <__umoddi3+0x3c0>
9d0040d8:	00003012 	mflo	a2
9d0040dc:	150d0009 	bne	t0,t5,9d004104 <__umoddi3+0x3d4>
9d0040e0:	00863023 	subu	a2,a0,a2
9d0040e4:	008c282b 	sltu	a1,a0,t4
9d0040e8:	50a00007 	beqzl	a1,9d004108 <__umoddi3+0x3d8>
9d0040ec:	01034023 	subu	t0,t0,v1
9d0040f0:	01823023 	subu	a2,t4,v0
9d0040f4:	01a73823 	subu	a3,t5,a3
9d0040f8:	0186602b 	sltu	t4,t4,a2
9d0040fc:	00ec1823 	subu	v1,a3,t4
9d004100:	00863023 	subu	a2,a0,a2
9d004104:	01034023 	subu	t0,t0,v1
9d004108:	0086182b 	sltu	v1,a0,a2
9d00410c:	01031823 	subu	v1,t0,v1
9d004110:	01631004 	sllv	v0,v1,t3
9d004114:	01c63006 	srlv	a2,a2,t6
9d004118:	00461025 	or	v0,v0,a2
9d00411c:	01c31806 	srlv	v1,v1,t6
9d004120:	03e00008 	jr	ra
9d004124:	00000000 	nop

9d004128 <__udivdi3>:
9d004128:	00c04025 	move	t0,a2
9d00412c:	00e01825 	move	v1,a3
9d004130:	00805025 	move	t2,a0
9d004134:	14e000a3 	bnez	a3,9d0043c4 <__udivdi3+0x29c>
9d004138:	00a01025 	move	v0,a1
9d00413c:	00a6302b 	sltu	a2,a1,a2
9d004140:	10c00034 	beqz	a2,9d004214 <__udivdi3+0xec>
9d004144:	00000000 	nop
9d004148:	71052820 	clz	a1,t0
9d00414c:	50a00008 	beqzl	a1,9d004170 <__udivdi3+0x48>
9d004150:	00082c02 	srl	a1,t0,0x10
9d004154:	00052023 	negu	a0,a1
9d004158:	008a2006 	srlv	a0,t2,a0
9d00415c:	00a21004 	sllv	v0,v0,a1
9d004160:	00a84004 	sllv	t0,t0,a1
9d004164:	00821025 	or	v0,a0,v0
9d004168:	00aa5004 	sllv	t2,t2,a1
9d00416c:	00082c02 	srl	a1,t0,0x10
9d004170:	0045001b 	divu	zero,v0,a1
9d004174:	00a001f4 	teq	a1,zero,0x7
9d004178:	3107ffff 	andi	a3,t0,0xffff
9d00417c:	000a2402 	srl	a0,t2,0x10
9d004180:	00003012 	mflo	a2
9d004184:	00001010 	mfhi	v0
9d004188:	00021400 	sll	v0,v0,0x10
9d00418c:	00442025 	or	a0,v0,a0
9d004190:	70e64802 	mul	t1,a3,a2
9d004194:	0089582b 	sltu	t3,a0,t1
9d004198:	1160000a 	beqz	t3,9d0041c4 <__udivdi3+0x9c>
9d00419c:	00c01025 	move	v0,a2
9d0041a0:	00882021 	addu	a0,a0,t0
9d0041a4:	0088582b 	sltu	t3,a0,t0
9d0041a8:	15600006 	bnez	t3,9d0041c4 <__udivdi3+0x9c>
9d0041ac:	24c2ffff 	addiu	v0,a2,-1
9d0041b0:	0089582b 	sltu	t3,a0,t1
9d0041b4:	51600004 	beqzl	t3,9d0041c8 <__udivdi3+0xa0>
9d0041b8:	00892023 	subu	a0,a0,t1
9d0041bc:	24c2fffe 	addiu	v0,a2,-2
9d0041c0:	00882021 	addu	a0,a0,t0
9d0041c4:	00892023 	subu	a0,a0,t1
9d0041c8:	0085001b 	divu	zero,a0,a1
9d0041cc:	00a001f4 	teq	a1,zero,0x7
9d0041d0:	314affff 	andi	t2,t2,0xffff
9d0041d4:	00002012 	mflo	a0
9d0041d8:	00002810 	mfhi	a1
9d0041dc:	00052c00 	sll	a1,a1,0x10
9d0041e0:	00aa5025 	or	t2,a1,t2
9d0041e4:	70e43802 	mul	a3,a3,a0
9d0041e8:	0147282b 	sltu	a1,t2,a3
9d0041ec:	10a00006 	beqz	a1,9d004208 <__udivdi3+0xe0>
9d0041f0:	00803025 	move	a2,a0
9d0041f4:	010a5021 	addu	t2,t0,t2
9d0041f8:	0148402b 	sltu	t0,t2,t0
9d0041fc:	2486ffff 	addiu	a2,a0,-1
9d004200:	11000036 	beqz	t0,9d0042dc <__udivdi3+0x1b4>
9d004204:	0147502b 	sltu	t2,t2,a3
9d004208:	00021400 	sll	v0,v0,0x10
9d00420c:	03e00008 	jr	ra
9d004210:	00461025 	or	v0,v0,a2
9d004214:	15000006 	bnez	t0,9d004230 <__udivdi3+0x108>
9d004218:	71021020 	clz	v0,t0
9d00421c:	24020001 	li	v0,1
9d004220:	0048001b 	divu	zero,v0,t0
9d004224:	010001f4 	teq	t0,zero,0x7
9d004228:	00004012 	mflo	t0
9d00422c:	71021020 	clz	v0,t0
9d004230:	1440002e 	bnez	v0,9d0042ec <__udivdi3+0x1c4>
9d004234:	24090020 	li	t1,32
9d004238:	00a82823 	subu	a1,a1,t0
9d00423c:	24030001 	li	v1,1
9d004240:	00083402 	srl	a2,t0,0x10
9d004244:	00a6001b 	divu	zero,a1,a2
9d004248:	00c001f4 	teq	a2,zero,0x7
9d00424c:	3107ffff 	andi	a3,t0,0xffff
9d004250:	000a2402 	srl	a0,t2,0x10
9d004254:	00002812 	mflo	a1
9d004258:	00001010 	mfhi	v0
9d00425c:	00021400 	sll	v0,v0,0x10
9d004260:	00442025 	or	a0,v0,a0
9d004264:	70e54802 	mul	t1,a3,a1
9d004268:	0089582b 	sltu	t3,a0,t1
9d00426c:	1160000a 	beqz	t3,9d004298 <__udivdi3+0x170>
9d004270:	00a01025 	move	v0,a1
9d004274:	00882021 	addu	a0,a0,t0
9d004278:	0088582b 	sltu	t3,a0,t0
9d00427c:	15600006 	bnez	t3,9d004298 <__udivdi3+0x170>
9d004280:	24a2ffff 	addiu	v0,a1,-1
9d004284:	0089582b 	sltu	t3,a0,t1
9d004288:	51600004 	beqzl	t3,9d00429c <__udivdi3+0x174>
9d00428c:	00892023 	subu	a0,a0,t1
9d004290:	24a2fffe 	addiu	v0,a1,-2
9d004294:	00882021 	addu	a0,a0,t0
9d004298:	00892023 	subu	a0,a0,t1
9d00429c:	0086001b 	divu	zero,a0,a2
9d0042a0:	00c001f4 	teq	a2,zero,0x7
9d0042a4:	314affff 	andi	t2,t2,0xffff
9d0042a8:	00002012 	mflo	a0
9d0042ac:	00003010 	mfhi	a2
9d0042b0:	00063400 	sll	a2,a2,0x10
9d0042b4:	00ca5025 	or	t2,a2,t2
9d0042b8:	70e42802 	mul	a1,a3,a0
9d0042bc:	0145382b 	sltu	a3,t2,a1
9d0042c0:	10e0ffd1 	beqz	a3,9d004208 <__udivdi3+0xe0>
9d0042c4:	00803025 	move	a2,a0
9d0042c8:	010a5021 	addu	t2,t0,t2
9d0042cc:	0148402b 	sltu	t0,t2,t0
9d0042d0:	1500ffcd 	bnez	t0,9d004208 <__udivdi3+0xe0>
9d0042d4:	2486ffff 	addiu	a2,a0,-1
9d0042d8:	0145502b 	sltu	t2,t2,a1
9d0042dc:	5540ffca 	bnezl	t2,9d004208 <__udivdi3+0xe0>
9d0042e0:	2486fffe 	addiu	a2,a0,-2
9d0042e4:	1000ffc9 	b	9d00420c <__udivdi3+0xe4>
9d0042e8:	00021400 	sll	v0,v0,0x10
9d0042ec:	01224823 	subu	t1,t1,v0
9d0042f0:	00484004 	sllv	t0,t0,v0
9d0042f4:	00451804 	sllv	v1,a1,v0
9d0042f8:	00445004 	sllv	t2,a0,v0
9d0042fc:	01252806 	srlv	a1,a1,t1
9d004300:	00081402 	srl	v0,t0,0x10
9d004304:	00a2001b 	divu	zero,a1,v0
9d004308:	004001f4 	teq	v0,zero,0x7
9d00430c:	3106ffff 	andi	a2,t0,0xffff
9d004310:	01243806 	srlv	a3,a0,t1
9d004314:	00e33825 	or	a3,a3,v1
9d004318:	00071c02 	srl	v1,a3,0x10
9d00431c:	00002812 	mflo	a1
9d004320:	00002010 	mfhi	a0
9d004324:	00042400 	sll	a0,a0,0x10
9d004328:	00832025 	or	a0,a0,v1
9d00432c:	70c54802 	mul	t1,a2,a1
9d004330:	0089582b 	sltu	t3,a0,t1
9d004334:	1160000a 	beqz	t3,9d004360 <__udivdi3+0x238>
9d004338:	00a01825 	move	v1,a1
9d00433c:	00882021 	addu	a0,a0,t0
9d004340:	0088582b 	sltu	t3,a0,t0
9d004344:	15600006 	bnez	t3,9d004360 <__udivdi3+0x238>
9d004348:	24a3ffff 	addiu	v1,a1,-1
9d00434c:	0089582b 	sltu	t3,a0,t1
9d004350:	51600004 	beqzl	t3,9d004364 <__udivdi3+0x23c>
9d004354:	00892023 	subu	a0,a0,t1
9d004358:	24a3fffe 	addiu	v1,a1,-2
9d00435c:	00882021 	addu	a0,a0,t0
9d004360:	00892023 	subu	a0,a0,t1
9d004364:	0082001b 	divu	zero,a0,v0
9d004368:	004001f4 	teq	v0,zero,0x7
9d00436c:	30e5ffff 	andi	a1,a3,0xffff
9d004370:	00001012 	mflo	v0
9d004374:	00002010 	mfhi	a0
9d004378:	00042400 	sll	a0,a0,0x10
9d00437c:	00852825 	or	a1,a0,a1
9d004380:	70c23002 	mul	a2,a2,v0
9d004384:	00a6382b 	sltu	a3,a1,a2
9d004388:	10e0000a 	beqz	a3,9d0043b4 <__udivdi3+0x28c>
9d00438c:	00402025 	move	a0,v0
9d004390:	00a82821 	addu	a1,a1,t0
9d004394:	00a8382b 	sltu	a3,a1,t0
9d004398:	14e00006 	bnez	a3,9d0043b4 <__udivdi3+0x28c>
9d00439c:	2444ffff 	addiu	a0,v0,-1
9d0043a0:	00a6382b 	sltu	a3,a1,a2
9d0043a4:	50e00004 	beqzl	a3,9d0043b8 <__udivdi3+0x290>
9d0043a8:	00031c00 	sll	v1,v1,0x10
9d0043ac:	2444fffe 	addiu	a0,v0,-2
9d0043b0:	00a82821 	addu	a1,a1,t0
9d0043b4:	00031c00 	sll	v1,v1,0x10
9d0043b8:	00a62823 	subu	a1,a1,a2
9d0043bc:	1000ffa0 	b	9d004240 <__udivdi3+0x118>
9d0043c0:	00641825 	or	v1,v1,a0
9d0043c4:	00a7102b 	sltu	v0,a1,a3
9d0043c8:	1440004f 	bnez	v0,9d004508 <__udivdi3+0x3e0>
9d0043cc:	00001825 	move	v1,zero
9d0043d0:	70ea5020 	clz	t2,a3
9d0043d4:	15400008 	bnez	t2,9d0043f8 <__udivdi3+0x2d0>
9d0043d8:	24090020 	li	t1,32
9d0043dc:	00e5282b 	sltu	a1,a3,a1
9d0043e0:	54a0004a 	bnezl	a1,9d00450c <__udivdi3+0x3e4>
9d0043e4:	24020001 	li	v0,1
9d0043e8:	0086102b 	sltu	v0,a0,a2
9d0043ec:	38420001 	xori	v0,v0,0x1
9d0043f0:	03e00008 	jr	ra
9d0043f4:	00001825 	move	v1,zero
9d0043f8:	012a4823 	subu	t1,t1,t2
9d0043fc:	01261006 	srlv	v0,a2,t1
9d004400:	01473804 	sllv	a3,a3,t2
9d004404:	00473825 	or	a3,v0,a3
9d004408:	00074402 	srl	t0,a3,0x10
9d00440c:	01451004 	sllv	v0,a1,t2
9d004410:	01252806 	srlv	a1,a1,t1
9d004414:	00a8001b 	divu	zero,a1,t0
9d004418:	010001f4 	teq	t0,zero,0x7
9d00441c:	01246006 	srlv	t4,a0,t1
9d004420:	30ebffff 	andi	t3,a3,0xffff
9d004424:	01826025 	or	t4,t4,v0
9d004428:	000c1c02 	srl	v1,t4,0x10
9d00442c:	01463004 	sllv	a2,a2,t2
9d004430:	00002812 	mflo	a1
9d004434:	00004810 	mfhi	t1
9d004438:	00094c00 	sll	t1,t1,0x10
9d00443c:	01234825 	or	t1,t1,v1
9d004440:	71651002 	mul	v0,t3,a1
9d004444:	0122682b 	sltu	t5,t1,v0
9d004448:	11a0000a 	beqz	t5,9d004474 <__udivdi3+0x34c>
9d00444c:	00a01825 	move	v1,a1
9d004450:	01274821 	addu	t1,t1,a3
9d004454:	0127682b 	sltu	t5,t1,a3
9d004458:	15a00006 	bnez	t5,9d004474 <__udivdi3+0x34c>
9d00445c:	24a3ffff 	addiu	v1,a1,-1
9d004460:	0122682b 	sltu	t5,t1,v0
9d004464:	51a00004 	beqzl	t5,9d004478 <__udivdi3+0x350>
9d004468:	01224823 	subu	t1,t1,v0
9d00446c:	24a3fffe 	addiu	v1,a1,-2
9d004470:	01274821 	addu	t1,t1,a3
9d004474:	01224823 	subu	t1,t1,v0
9d004478:	0128001b 	divu	zero,t1,t0
9d00447c:	010001f4 	teq	t0,zero,0x7
9d004480:	3185ffff 	andi	a1,t4,0xffff
9d004484:	00004012 	mflo	t0
9d004488:	00004810 	mfhi	t1
9d00448c:	00094c00 	sll	t1,t1,0x10
9d004490:	01252825 	or	a1,t1,a1
9d004494:	71685802 	mul	t3,t3,t0
9d004498:	00ab102b 	sltu	v0,a1,t3
9d00449c:	1040000a 	beqz	v0,9d0044c8 <__udivdi3+0x3a0>
9d0044a0:	01004825 	move	t1,t0
9d0044a4:	00a72821 	addu	a1,a1,a3
9d0044a8:	00a7102b 	sltu	v0,a1,a3
9d0044ac:	14400006 	bnez	v0,9d0044c8 <__udivdi3+0x3a0>
9d0044b0:	2509ffff 	addiu	t1,t0,-1
9d0044b4:	00ab102b 	sltu	v0,a1,t3
9d0044b8:	10400004 	beqz	v0,9d0044cc <__udivdi3+0x3a4>
9d0044bc:	00031400 	sll	v0,v1,0x10
9d0044c0:	2509fffe 	addiu	t1,t0,-2
9d0044c4:	00a72821 	addu	a1,a1,a3
9d0044c8:	00031400 	sll	v0,v1,0x10
9d0044cc:	00491025 	or	v0,v0,t1
9d0044d0:	00460019 	multu	v0,a2
9d0044d4:	00ab2823 	subu	a1,a1,t3
9d0044d8:	00003810 	mfhi	a3
9d0044dc:	00a7182b 	sltu	v1,a1,a3
9d0044e0:	14600007 	bnez	v1,9d004500 <__udivdi3+0x3d8>
9d0044e4:	00003012 	mflo	a2
9d0044e8:	14a70008 	bne	a1,a3,9d00450c <__udivdi3+0x3e4>
9d0044ec:	00001825 	move	v1,zero
9d0044f0:	01442004 	sllv	a0,a0,t2
9d0044f4:	0086202b 	sltu	a0,a0,a2
9d0044f8:	10800004 	beqz	a0,9d00450c <__udivdi3+0x3e4>
9d0044fc:	00000000 	nop
9d004500:	1000ffbb 	b	9d0043f0 <__udivdi3+0x2c8>
9d004504:	2442ffff 	addiu	v0,v0,-1
9d004508:	00001025 	move	v0,zero
9d00450c:	03e00008 	jr	ra
9d004510:	00000000 	nop

Disassembly of section .text:

9d004514 <CoreTimerISR>:
float te;




void __ISR(_CORE_TIMER_VECTOR, IPL6SRS) CoreTimerISR(void) {  // step 1: the ISR
9d004514:	415de800 	rdpgpr	sp,sp
9d004518:	401a7000 	mfc0	k0,c0_epc
9d00451c:	401b6000 	mfc0	k1,c0_status
9d004520:	27bdfff0 	addiu	sp,sp,-16
9d004524:	afba000c 	sw	k0,12(sp)
9d004528:	401a6002 	mfc0	k0,c0_srsctl
9d00452c:	afbb0008 	sw	k1,8(sp)
9d004530:	afba0004 	sw	k0,4(sp)
9d004534:	7c1b7844 	ins	k1,zero,0x1,0xf
9d004538:	377b1800 	ori	k1,k1,0x1800
9d00453c:	409b6000 	mtc0	k1,c0_status
  IFS0bits.CTIF = 0;                // clear CT int flag IFS0<0>, same as IFS0CLR=0x0001
9d004540:	3c02bf88 	lui	v0,0xbf88
9d004544:	8c431030 	lw	v1,4144(v0)
9d004548:	7c030004 	ins	v1,zero,0x0,0x1
9d00454c:	ac431030 	sw	v1,4144(v0)
  LATFINV = 0x2;                    // invert pin RF1 only
9d004550:	3c02bf88 	lui	v0,0xbf88
9d004554:	24030002 	li	v1,2
9d004558:	ac43616c 	sw	v1,24940(v0)
  //_CP0_SET_COUNT(0);                // set core timer counter to 0
  _CP0_SET_COMPARE(CORE_TICKS);     // must set CP0_COMPARE again after interrupt
9d00455c:	3c020262 	lui	v0,0x262
9d004560:	24425a00 	addiu	v0,v0,23040
9d004564:	40825800 	mtc0	v0,c0_compare
9d004568:	000000c0 	ehb
}
9d00456c:	41606000 	di
9d004570:	000000c0 	ehb
9d004574:	8fbb0004 	lw	k1,4(sp)
9d004578:	8fba000c 	lw	k0,12(sp)
9d00457c:	409b6002 	mtc0	k1,c0_srsctl
9d004580:	8fbb0008 	lw	k1,8(sp)
9d004584:	409a7000 	mtc0	k0,c0_epc
9d004588:	27bd0010 	addiu	sp,sp,16
9d00458c:	41dde800 	wrpgpr	sp,sp
9d004590:	409b6000 	mtc0	k1,c0_status
9d004594:	42000018 	eret

9d004598 <Ext0ISR>:


void __ISR(_EXTERNAL_0_VECTOR, IPL2SOFT) Ext0ISR(void) { // step 1: the ISR
9d004598:	415de800 	rdpgpr	sp,sp
9d00459c:	401a7000 	mfc0	k0,c0_epc
9d0045a0:	401b6000 	mfc0	k1,c0_status
9d0045a4:	27bdff18 	addiu	sp,sp,-232
9d0045a8:	afba00e4 	sw	k0,228(sp)
9d0045ac:	401a6002 	mfc0	k0,c0_srsctl
9d0045b0:	afbb00e0 	sw	k1,224(sp)
9d0045b4:	afba00dc 	sw	k0,220(sp)
9d0045b8:	7c1b7844 	ins	k1,zero,0x1,0xf
9d0045bc:	377b0800 	ori	k1,k1,0x800
9d0045c0:	409b6000 	mtc0	k1,c0_status
9d0045c4:	afbf00cc 	sw	ra,204(sp)
9d0045c8:	afb900c8 	sw	t9,200(sp)
9d0045cc:	afb800c4 	sw	t8,196(sp)
9d0045d0:	afb100c0 	sw	s1,192(sp)
9d0045d4:	afb000bc 	sw	s0,188(sp)
9d0045d8:	afaf00b8 	sw	t7,184(sp)
9d0045dc:	afae00b4 	sw	t6,180(sp)
9d0045e0:	afad00b0 	sw	t5,176(sp)
9d0045e4:	afac00ac 	sw	t4,172(sp)
9d0045e8:	afab00a8 	sw	t3,168(sp)
9d0045ec:	afaa00a4 	sw	t2,164(sp)
9d0045f0:	afa900a0 	sw	t1,160(sp)
9d0045f4:	afa8009c 	sw	t0,156(sp)
9d0045f8:	afa70098 	sw	a3,152(sp)
9d0045fc:	afa60094 	sw	a2,148(sp)
9d004600:	afa50090 	sw	a1,144(sp)
9d004604:	afa4008c 	sw	a0,140(sp)
9d004608:	afa30088 	sw	v1,136(sp)
9d00460c:	afa20084 	sw	v0,132(sp)
9d004610:	afa10080 	sw	at,128(sp)
9d004614:	00001012 	mflo	v0
9d004618:	afa200d4 	sw	v0,212(sp)
9d00461c:	00001810 	mfhi	v1
9d004620:	afa300d0 	sw	v1,208(sp)
  IFS0bits.INT0IF = 0;            // clear interrupt flag IFS0<3>
9d004624:	3c02bf88 	lui	v0,0xbf88
9d004628:	8c431030 	lw	v1,4144(v0)
9d00462c:	7c0318c4 	ins	v1,zero,0x3,0x1
9d004630:	ac431030 	sw	v1,4144(v0)

  // read the core timer
  // while core timer less than 10 ms 
  // read the button again
      char m[100]; // initialize a message string
      j = 0;
9d004634:	af808014 	sw	zero,-32748(gp)
      while (j<400000){
9d004638:	8f828014 	lw	v0,-32748(gp)
9d00463c:	3c030006 	lui	v1,0x6
9d004640:	24631a80 	addiu	v1,v1,6784
9d004644:	0043102a 	slt	v0,v0,v1
9d004648:	1040000a 	beqz	v0,9d004674 <Ext0ISR+0xdc>
9d00464c:	3c02bf88 	lui	v0,0xbf88
9d004650:	3c030006 	lui	v1,0x6
9d004654:	24631a80 	addiu	v1,v1,6784
        j = j+1;
9d004658:	8f828014 	lw	v0,-32748(gp)
9d00465c:	24420001 	addiu	v0,v0,1
9d004660:	af828014 	sw	v0,-32748(gp)
      while (j<400000){
9d004664:	8f828014 	lw	v0,-32748(gp)
9d004668:	0043102a 	slt	v0,v0,v1
9d00466c:	1440fffa 	bnez	v0,9d004658 <Ext0ISR+0xc0>
9d004670:	3c02bf88 	lui	v0,0xbf88
      }

      //sprintf(m,"state = %d \r\n",state);
      //NU32_WriteUART3(m); // print time elapsed to screen

      if (PORTDbits.RD7 == 0) { // after the delay, if RD7 is still low (pressed) then execute code below
9d004674:	8c4260d0 	lw	v0,24784(v0)
9d004678:	7c4201c0 	ext	v0,v0,0x7,0x1
9d00467c:	14400008 	bnez	v0,9d0046a0 <Ext0ISR+0x108>
9d004680:	00000000 	nop
          if (state==0){ // button hasn't been pushed yet
9d004684:	8f828010 	lw	v0,-32752(gp)
9d004688:	10400028 	beqz	v0,9d00472c <Ext0ISR+0x194>
9d00468c:	00000000 	nop
            // record the core timer for the first time
            state = 1; // to note that the button has been pushed and t1 has been recorded

          }

          else if (state==1) { // button has alread been pressed and t1 has been recorded
9d004690:	8f838010 	lw	v1,-32752(gp)
9d004694:	24020001 	li	v0,1
9d004698:	10620031 	beq	v1,v0,9d004760 <Ext0ISR+0x1c8>
9d00469c:	00000000 	nop
      }

      

  
}
9d0046a0:	8fa200d4 	lw	v0,212(sp)
9d0046a4:	00400013 	mtlo	v0
9d0046a8:	8fa300d0 	lw	v1,208(sp)
9d0046ac:	00600011 	mthi	v1
9d0046b0:	8fbf00cc 	lw	ra,204(sp)
9d0046b4:	8fb900c8 	lw	t9,200(sp)
9d0046b8:	8fb800c4 	lw	t8,196(sp)
9d0046bc:	8fb100c0 	lw	s1,192(sp)
9d0046c0:	8fb000bc 	lw	s0,188(sp)
9d0046c4:	8faf00b8 	lw	t7,184(sp)
9d0046c8:	8fae00b4 	lw	t6,180(sp)
9d0046cc:	8fad00b0 	lw	t5,176(sp)
9d0046d0:	8fac00ac 	lw	t4,172(sp)
9d0046d4:	8fab00a8 	lw	t3,168(sp)
9d0046d8:	8faa00a4 	lw	t2,164(sp)
9d0046dc:	8fa900a0 	lw	t1,160(sp)
9d0046e0:	8fa8009c 	lw	t0,156(sp)
9d0046e4:	8fa70098 	lw	a3,152(sp)
9d0046e8:	8fa60094 	lw	a2,148(sp)
9d0046ec:	8fa50090 	lw	a1,144(sp)
9d0046f0:	8fa4008c 	lw	a0,140(sp)
9d0046f4:	8fa30088 	lw	v1,136(sp)
9d0046f8:	8fa20084 	lw	v0,132(sp)
9d0046fc:	8fa10080 	lw	at,128(sp)
9d004700:	41606000 	di
9d004704:	000000c0 	ehb
9d004708:	8fba00e4 	lw	k0,228(sp)
9d00470c:	8fbb00e0 	lw	k1,224(sp)
9d004710:	409a7000 	mtc0	k0,c0_epc
9d004714:	8fba00dc 	lw	k0,220(sp)
9d004718:	27bd00e8 	addiu	sp,sp,232
9d00471c:	409a6002 	mtc0	k0,c0_srsctl
9d004720:	41dde800 	wrpgpr	sp,sp
9d004724:	409b6000 	mtc0	k1,c0_status
9d004728:	42000018 	eret
            t1 = _CP0_GET_COUNT();
9d00472c:	40024800 	mfc0	v0,c0_count
9d004730:	af82801c 	sw	v0,-32740(gp)
            sprintf(m,"time 1: %d\r\n",t1);
9d004734:	8f86801c 	lw	a2,-32740(gp)
9d004738:	3c059d00 	lui	a1,0x9d00
9d00473c:	24a51e00 	addiu	a1,a1,7680
9d004740:	0f401a0e 	jal	9d006838 <_dsprintf_cdeEfFgGnopuxX>
9d004744:	27a40018 	addiu	a0,sp,24
            NU32_WriteUART3(m); // print time elapsed to screen
9d004748:	0f40145a 	jal	9d005168 <NU32_WriteUART3>
9d00474c:	27a40018 	addiu	a0,sp,24
            state = 1; // to note that the button has been pushed and t1 has been recorded
9d004750:	24020001 	li	v0,1
9d004754:	af828010 	sw	v0,-32752(gp)
9d004758:	1000ffd1 	b	9d0046a0 <Ext0ISR+0x108>
9d00475c:	00000000 	nop
            t2 = _CP0_GET_COUNT(); // record core timer upon second button press
9d004760:	40024800 	mfc0	v0,c0_count
9d004764:	af828018 	sw	v0,-32744(gp)
            t3 = t2 - t1;
9d004768:	8f828018 	lw	v0,-32744(gp)
9d00476c:	8f83801c 	lw	v1,-32740(gp)
9d004770:	00431023 	subu	v0,v0,v1
9d004774:	af828020 	sw	v0,-32736(gp)
            te = ((t3) / (40000000.0)) ; // find difference
9d004778:	8f848020 	lw	a0,-32736(gp)
9d00477c:	0f4018ed 	jal	9d0063b4 <__floatsidf>
9d004780:	00000000 	nop
9d004784:	3c049d00 	lui	a0,0x9d00
9d004788:	8c861e48 	lw	a2,7752(a0)
9d00478c:	8c871e4c 	lw	a3,7756(a0)
9d004790:	00402025 	move	a0,v0
9d004794:	0f400d12 	jal	9d003448 <__divdf3>
9d004798:	00602825 	move	a1,v1
9d00479c:	00402025 	move	a0,v0
9d0047a0:	0f40168b 	jal	9d005a2c <__truncdfsf2>
9d0047a4:	00602825 	move	a1,v1
9d0047a8:	af828024 	sw	v0,-32732(gp)
            sprintf(m,"seconds elapsed: %f \r\n time 1: %d \r\n time 2:%d \r\n",te,t1,t2);
9d0047ac:	8f90801c 	lw	s0,-32740(gp)
9d0047b0:	8f918018 	lw	s1,-32744(gp)
9d0047b4:	0f4017e7 	jal	9d005f9c <__extendsfdf2>
9d0047b8:	00402025 	move	a0,v0
9d0047bc:	afb10014 	sw	s1,20(sp)
9d0047c0:	afb00010 	sw	s0,16(sp)
9d0047c4:	00403025 	move	a2,v0
9d0047c8:	00603825 	move	a3,v1
9d0047cc:	3c059d00 	lui	a1,0x9d00
9d0047d0:	24a51e10 	addiu	a1,a1,7696
9d0047d4:	0f401a0e 	jal	9d006838 <_dsprintf_cdeEfFgGnopuxX>
9d0047d8:	27a40018 	addiu	a0,sp,24
            NU32_WriteUART3(m); // print time elapsed to screen
9d0047dc:	0f40145a 	jal	9d005168 <NU32_WriteUART3>
9d0047e0:	27a40018 	addiu	a0,sp,24
            state = 0; // reset 
9d0047e4:	af808010 	sw	zero,-32752(gp)
}
9d0047e8:	1000ffad 	b	9d0046a0 <Ext0ISR+0x108>
9d0047ec:	00000000 	nop

9d0047f0 <main>:





int main(void) {
9d0047f0:	27bdffe8 	addiu	sp,sp,-24
9d0047f4:	afbf0014 	sw	ra,20(sp)
  NU32_Startup(); // cache on, min flash wait, interrupts on, LED/button init, UART init
9d0047f8:	0f4013fe 	jal	9d004ff8 <NU32_Startup>
9d0047fc:	00000000 	nop

  __builtin_disable_interrupts();   // step 2: disable interrupts at CPU
9d004800:	41626000 	di	v0
9d004804:	000000c0 	ehb
  _CP0_SET_COMPARE(CORE_TICKS);     // step 3: CP0_COMPARE register set to 40 M
9d004808:	3c020262 	lui	v0,0x262
9d00480c:	24425a00 	addiu	v0,v0,23040
9d004810:	40825800 	mtc0	v0,c0_compare
9d004814:	000000c0 	ehb
  IPC0bits.CTIP = 6;                // step 4: interrupt priority
9d004818:	3c02bf88 	lui	v0,0xbf88
9d00481c:	8c431090 	lw	v1,4240(v0)
9d004820:	24040006 	li	a0,6
9d004824:	7c832084 	ins	v1,a0,0x2,0x3
9d004828:	ac431090 	sw	v1,4240(v0)
  IPC0bits.CTIS = 0;                // step 4: subp is 0, which is the default
9d00482c:	8c431090 	lw	v1,4240(v0)
9d004830:	7c030804 	ins	v1,zero,0x0,0x2
9d004834:	ac431090 	sw	v1,4240(v0)
  IFS0bits.CTIF = 0;                // step 5: clear CT interrupt flag
9d004838:	3c04bf88 	lui	a0,0xbf88
9d00483c:	8c831030 	lw	v1,4144(a0)
9d004840:	7c030004 	ins	v1,zero,0x0,0x1
9d004844:	ac831030 	sw	v1,4144(a0)
  IEC0bits.CTIE = 1;                // step 6: enable core timer interrupt
9d004848:	3c03bf88 	lui	v1,0xbf88
9d00484c:	8c661060 	lw	a2,4192(v1)
9d004850:	24050001 	li	a1,1
9d004854:	7ca60004 	ins	a2,a1,0x0,0x1
9d004858:	ac661060 	sw	a2,4192(v1)

  INTCONbits.INT0EP = 0;          // step 3: INT0 triggers on falling edge
9d00485c:	3c06bf88 	lui	a2,0xbf88
9d004860:	8cc71000 	lw	a3,4096(a2)
9d004864:	7c070004 	ins	a3,zero,0x0,0x1
9d004868:	acc71000 	sw	a3,4096(a2)
  IPC0bits.INT0IP = 2;            // step 4: interrupt priority 2
9d00486c:	8c461090 	lw	a2,4240(v0)
9d004870:	24070002 	li	a3,2
9d004874:	7ce6e684 	ins	a2,a3,0x1a,0x3
9d004878:	ac461090 	sw	a2,4240(v0)
  IPC0bits.INT0IS = 1;            // step 4: interrupt priority 1
9d00487c:	8c461090 	lw	a2,4240(v0)
9d004880:	7ca6ce04 	ins	a2,a1,0x18,0x2
9d004884:	ac461090 	sw	a2,4240(v0)
  IFS0bits.INT0IF = 0;            // step 5: clear the int flag
9d004888:	8c821030 	lw	v0,4144(a0)
9d00488c:	7c0218c4 	ins	v0,zero,0x3,0x1
9d004890:	ac821030 	sw	v0,4144(a0)
  IEC0bits.INT0IE = 1;            // step 6: enable INT0 by setting IEC0<3>
9d004894:	8c621060 	lw	v0,4192(v1)
9d004898:	7ca218c4 	ins	v0,a1,0x3,0x1
9d00489c:	ac621060 	sw	v0,4192(v1)
  __builtin_enable_interrupts();    // step 7: CPU interrupts enabled
9d0048a0:	41626020 	ei	v0

  _CP0_SET_COUNT(0);                // set core timer counter to 0
9d0048a4:	00001025 	move	v0,zero
9d0048a8:	40824800 	mtc0	v0,c0_count
9d0048ac:	000000c0 	ehb

  while(1) { ;
9d0048b0:	1000ffff 	b	9d0048b0 <main+0xc0>
9d0048b4:	00000000 	nop

Disassembly of section .text.dp32mul:

9d0048b8 <__muldf3>:
9d0048b8:	00055040 000a5542 00054ac0 00047d42     @P..BU...J..B}..
9d0048c8:	012f4825 000442c0 3c0e8000 012e4825     %H/..B.....<%H..
9d0048d8:	00076840 000d6d42 000762c0 00067d42     @h..Bm...b..B}..
9d0048e8:	018f6025 00065ac0 018e6025 00a72826     %`...Z..%`..&(..
9d0048f8:	00ae2824 254fffff 2de107fe 10200047     $(....O%...-G. .
9d004908:	00000000                                ....

9d00490c <Clab1>:
9d00490c:	25afffff 	addiu	t7,t5,-1
9d004910:	2de107fe 	sltiu	at,t7,2046
9d004914:	1020006f 	beqz	at,9d004ad4 <CspecB>
9d004918:	00000000 	nop

9d00491c <Clab2>:
9d00491c:	25affc02 	addiu	t7,t5,-1022
9d004920:	014f5021 	addu	t2,t2,t7
9d004924:	012c0019 	multu	t1,t4
9d004928:	00003812 	mflo	a3
9d00492c:	00007010 	mfhi	t6
9d004930:	010b0019 	multu	t0,t3
9d004934:	00002012 	mflo	a0
9d004938:	00003010 	mfhi	a2
9d00493c:	012b0019 	multu	t1,t3
9d004940:	00005812 	mflo	t3
9d004944:	00006810 	mfhi	t5
9d004948:	00cb3021 	addu	a2,a2,t3
9d00494c:	00cb782b 	sltu	t7,a2,t3
9d004950:	00ed3821 	addu	a3,a3,t5
9d004954:	00ef3821 	addu	a3,a3,t7
9d004958:	10ed0002 	beq	a3,t5,9d004964 <L20>
9d00495c:	00000000 	nop
9d004960:	00ed782b 	sltu	t7,a3,t5

9d004964 <L20>:
9d004964:	01cf7021 	addu	t6,t6,t7
9d004968:	010c0019 	multu	t0,t4
9d00496c:	00004012 	mflo	t0
9d004970:	00004810 	mfhi	t1
9d004974:	00c83021 	addu	a2,a2,t0
9d004978:	00c8782b 	sltu	t7,a2,t0
9d00497c:	00e93821 	addu	a3,a3,t1
9d004980:	00ef3821 	addu	a3,a3,t7
9d004984:	10e90002 	beq	a3,t1,9d004990 <L21>
9d004988:	00000000 	nop
9d00498c:	00e9782b 	sltu	t7,a3,t1

9d004990 <L21>:
9d004990:	01cf7021 	addu	t6,t6,t7
9d004994:	00867825 	or	t7,a0,a2
9d004998:	11e00002 	beqz	t7,9d0049a4 <i13>
9d00499c:	00000000 	nop
9d0049a0:	34e70001 	ori	a3,a3,0x1

9d0049a4 <i13>:
9d0049a4:	000e4825 	or	t1,zero,t6
9d0049a8:	05200006 	bltz	t1,9d0049c4 <i14>
9d0049ac:	00074025 	or	t0,zero,a3
9d0049b0:	0100782a 	slt	t7,t0,zero
9d0049b4:	01084021 	addu	t0,t0,t0
9d0049b8:	01294821 	addu	t1,t1,t1
9d0049bc:	012f4821 	addu	t1,t1,t7
9d0049c0:	254affff 	addiu	t2,t2,-1

9d0049c4 <i14>:
9d0049c4:	254fffff 	addiu	t7,t2,-1
9d0049c8:	2de107fe 	sltiu	at,t7,2046
9d0049cc:	10200068 	beqz	at,9d004b70 <Coveund>
9d0049d0:	00000000 	nop
9d0049d4:	25080400 	addiu	t0,t0,1024
9d0049d8:	2d0f0400 	sltiu	t7,t0,1024
9d0049dc:	012f4821 	addu	t1,t1,t7
9d0049e0:	012f782b 	sltu	t7,t1,t7
9d0049e4:	014f5021 	addu	t2,t2,t7

9d0049e8 <Clab8>:
9d0049e8:	00087ac2 	srl	t7,t0,0xb
9d0049ec:	31ef0001 	andi	t7,t7,0x1
9d0049f0:	010f4023 	subu	t0,t0,t7
9d0049f4:	000822c2 	srl	a0,t0,0xb
9d0049f8:	00097d40 	sll	t7,t1,0x15
9d0049fc:	008f2025 	or	a0,a0,t7
9d004a00:	00097840 	sll	t7,t1,0x1
9d004a04:	000f7b02 	srl	t7,t7,0xc
9d004a08:	00af2825 	or	a1,a1,t7
9d004a0c:	000a7d00 	sll	t7,t2,0x14
9d004a10:	00af2825 	or	a1,a1,t7

9d004a14 <Cret>:
9d004a14:	00041025 	or	v0,zero,a0
9d004a18:	00051825 	or	v1,zero,a1

9d004a1c <C999>:
9d004a1c:	03e00008 	jr	ra
9d004a20:	00000000 	nop

9d004a24 <CspecA>:
9d004a24:	0100782a 	slt	t7,t0,zero
9d004a28:	01084021 	addu	t0,t0,t0
9d004a2c:	01294821 	addu	t1,t1,t1
9d004a30:	1540001c 	bnez	t2,9d004aa4 <i15>
9d004a34:	012f4821 	addu	t1,t1,t7
9d004a38:	01287825 	or	t7,t1,t0
9d004a3c:	11e00014 	beqz	t7,9d004a90 <i16>
9d004a40:	00000000 	nop
9d004a44:	15200008 	bnez	t1,9d004a68 <L22>
9d004a48:	00000000 	nop
9d004a4c:	15000003 	bnez	t0,9d004a5c <L23>
9d004a50:	00000000 	nop
9d004a54:	1000ffad 	b	9d00490c <Clab1>
9d004a58:	240a0000 	li	t2,0

9d004a5c <L23>:
9d004a5c:	01004825 	move	t1,t0
9d004a60:	24080000 	li	t0,0
9d004a64:	254affe0 	addiu	t2,t2,-32

9d004a68 <L22>:
9d004a68:	712e7020 	clz	t6,t1
9d004a6c:	11c0ffa7 	beqz	t6,9d00490c <Clab1>
9d004a70:	00000000 	nop
9d004a74:	014e5023 	subu	t2,t2,t6
9d004a78:	000e3822 	neg	a3,t6
9d004a7c:	00e83806 	srlv	a3,t0,a3
9d004a80:	01c84004 	sllv	t0,t0,t6
9d004a84:	01c94804 	sllv	t1,t1,t6
9d004a88:	1000ffa0 	b	9d00490c <Clab1>
9d004a8c:	01274825 	or	t1,t1,a3

9d004a90 <i16>:
9d004a90:	240107ff 	li	at,2047
9d004a94:	11a10033 	beq	t5,at,9d004b64 <Cnan>
9d004a98:	00000000 	nop
9d004a9c:	1000ffdd 	b	9d004a14 <Cret>
9d004aa0:	00000000 	nop

9d004aa4 <i15>:
9d004aa4:	01287825 	or	t7,t1,t0
9d004aa8:	15e0002e 	bnez	t7,9d004b64 <Cnan>
9d004aac:	00000000 	nop
9d004ab0:	15a00005 	bnez	t5,9d004ac8 <i17>
9d004ab4:	00000000 	nop
9d004ab8:	000c7840 	sll	t7,t4,0x1
9d004abc:	01eb7825 	or	t7,t7,t3
9d004ac0:	11e00028 	beqz	t7,9d004b64 <Cnan>
9d004ac4:	00000000 	nop

9d004ac8 <i17>:
9d004ac8:	240107ff 	li	at,2047
9d004acc:	15a10021 	bne	t5,at,9d004b54 <Cinf>
9d004ad0:	00000000 	nop

9d004ad4 <CspecB>:
9d004ad4:	0160782a 	slt	t7,t3,zero
9d004ad8:	016b5821 	addu	t3,t3,t3
9d004adc:	018c6021 	addu	t4,t4,t4
9d004ae0:	15a00019 	bnez	t5,9d004b48 <i18>
9d004ae4:	018f6021 	addu	t4,t4,t7
9d004ae8:	018b7825 	or	t7,t4,t3
9d004aec:	11e00014 	beqz	t7,9d004b40 <i19>
9d004af0:	00000000 	nop
9d004af4:	15800008 	bnez	t4,9d004b18 <L25>
9d004af8:	00000000 	nop
9d004afc:	15600003 	bnez	t3,9d004b0c <L26>
9d004b00:	00000000 	nop
9d004b04:	1000ff85 	b	9d00491c <Clab2>
9d004b08:	240d0000 	li	t5,0

9d004b0c <L26>:
9d004b0c:	01606025 	move	t4,t3
9d004b10:	240b0000 	li	t3,0
9d004b14:	25adffe0 	addiu	t5,t5,-32

9d004b18 <L25>:
9d004b18:	71863020 	clz	a2,t4
9d004b1c:	10c0ff7f 	beqz	a2,9d00491c <Clab2>
9d004b20:	00000000 	nop
9d004b24:	01a66823 	subu	t5,t5,a2
9d004b28:	00067022 	neg	t6,a2
9d004b2c:	01cb7006 	srlv	t6,t3,t6
9d004b30:	00cb5804 	sllv	t3,t3,a2
9d004b34:	00cc6004 	sllv	t4,t4,a2
9d004b38:	1000ff78 	b	9d00491c <Clab2>
9d004b3c:	018e6025 	or	t4,t4,t6

9d004b40 <i19>:
9d004b40:	1000ffb4 	b	9d004a14 <Cret>
9d004b44:	24040000 	li	a0,0

9d004b48 <i18>:
9d004b48:	018b7825 	or	t7,t4,t3
9d004b4c:	15e00005 	bnez	t7,9d004b64 <Cnan>
9d004b50:	00000000 	nop

9d004b54 <Cinf>:
9d004b54:	3c017ff0 	lui	at,0x7ff0
9d004b58:	00a12825 	or	a1,a1,at
9d004b5c:	1000ffad 	b	9d004a14 <Cret>
9d004b60:	24040000 	li	a0,0

9d004b64 <Cnan>:
9d004b64:	3c05fff8 	lui	a1,0xfff8
9d004b68:	1000ffaa 	b	9d004a14 <Cret>
9d004b6c:	24040000 	li	a0,0

9d004b70 <Coveund>:
9d004b70:	1d40fff8 	bgtz	t2,9d004b54 <Cinf>
9d004b74:	00000000 	nop
9d004b78:	240e0001 	li	t6,1
9d004b7c:	01ca7023 	subu	t6,t6,t2

9d004b80 <L28>:
9d004b80:	2dc10020 	sltiu	at,t6,32
9d004b84:	14200007 	bnez	at,9d004ba4 <L29>
9d004b88:	00000000 	nop
9d004b8c:	21ceffe0 	addi	t6,t6,-32
9d004b90:	0008302b 	sltu	a2,zero,t0
9d004b94:	1009000d 	beq	zero,t1,9d004bcc <L30>
9d004b98:	01264025 	or	t0,t1,a2
9d004b9c:	1000fff8 	b	9d004b80 <L28>
9d004ba0:	34090000 	li	t1,0x0

9d004ba4 <L29>:
9d004ba4:	11c00009 	beqz	t6,9d004bcc <L30>
9d004ba8:	00000000 	nop
9d004bac:	000e3822 	neg	a3,t6
9d004bb0:	00e83004 	sllv	a2,t0,a3
9d004bb4:	00e93804 	sllv	a3,t1,a3
9d004bb8:	01c84006 	srlv	t0,t0,t6
9d004bbc:	01c94806 	srlv	t1,t1,t6
9d004bc0:	10c00002 	beqz	a2,9d004bcc <L30>
9d004bc4:	00e84025 	or	t0,a3,t0
9d004bc8:	35080002 	ori	t0,t0,0x2

9d004bcc <L30>:
9d004bcc:	25080400 	addiu	t0,t0,1024
9d004bd0:	2d0f0400 	sltiu	t7,t0,1024
9d004bd4:	012f4821 	addu	t1,t1,t7
9d004bd8:	1000ff83 	b	9d0049e8 <Clab8>
9d004bdc:	000957c2 	srl	t2,t1,0x1f
9d004be0:	00000000 	nop

Disassembly of section .text.__fmt_x:

9d004be4 <__fmt_x>:
9d004be4:	27bdffa8 	addiu	sp,sp,-88
9d004be8:	afb10034 	sw	s1,52(sp)
9d004bec:	8cb10004 	lw	s1,4(a1)
9d004bf0:	afbe0050 	sw	s8,80(sp)
9d004bf4:	afb7004c 	sw	s7,76(sp)
9d004bf8:	afb50044 	sw	s5,68(sp)
9d004bfc:	afb3003c 	sw	s3,60(sp)
9d004c00:	00e04825 	move	t1,a3
9d004c04:	afbf0054 	sw	ra,84(sp)
9d004c08:	afb60048 	sw	s6,72(sp)
9d004c0c:	afb40040 	sw	s4,64(sp)
9d004c10:	afb20038 	sw	s2,56(sp)
9d004c14:	afb00030 	sw	s0,48(sp)
9d004c18:	00809825 	move	s3,a0
9d004c1c:	00a0a825 	move	s5,a1
9d004c20:	8ca70008 	lw	a3,8(a1)
9d004c24:	8cbe0000 	lw	s8,0(a1)
9d004c28:	0620004c 	bltz	s1,9d004d5c <__fmt_x+0x178>
9d004c2c:	8cb7000c 	lw	s7,12(a1)
9d004c30:	7c1e0844 	ins	s8,zero,0x1,0x1
9d004c34:	33ca0010 	andi	t2,s8,0x10
9d004c38:	8cd60000 	lw	s6,0(a2)
9d004c3c:	8cc80004 	lw	t0,4(a2)
9d004c40:	11400004 	beqz	t2,9d004c54 <__fmt_x+0x70>
9d004c44:	00e01025 	move	v0,a3
9d004c48:	02c81825 	or	v1,s6,t0
9d004c4c:	54600001 	bnezl	v1,9d004c54 <__fmt_x+0x70>
9d004c50:	24e2fffe 	addiu	v0,a3,-2
9d004c54:	33cb0008 	andi	t3,s8,0x8
9d004c58:	55600001 	bnezl	t3,9d004c60 <__fmt_x+0x7c>
9d004c5c:	2442ffff 	addiu	v0,v0,-1
9d004c60:	8eb00010 	lw	s0,16(s5)
9d004c64:	2534ffbf 	addiu	s4,t1,-65
9d004c68:	00519023 	subu	s2,v0,s1
9d004c6c:	2610ffff 	addiu	s0,s0,-1
9d004c70:	02f01821 	addu	v1,s7,s0
9d004c74:	a0600000 	sb	zero,0(v1)
9d004c78:	33c50002 	andi	a1,s8,0x2
9d004c7c:	2e94001a 	sltiu	s4,s4,26
9d004c80:	2a020002 	slti	v0,s0,2
9d004c84:	1440000a 	bnez	v0,9d004cb0 <__fmt_x+0xcc>
9d004c88:	02c81025 	or	v0,s6,t0
9d004c8c:	14400035 	bnez	v0,9d004d64 <__fmt_x+0x180>
9d004c90:	32c3000f 	andi	v1,s6,0xf
9d004c94:	1e200034 	bgtz	s1,9d004d68 <__fmt_x+0x184>
9d004c98:	2864000a 	slti	a0,v1,10
9d004c9c:	02511021 	addu	v0,s2,s1
9d004ca0:	18400003 	blez	v0,9d004cb0 <__fmt_x+0xcc>
9d004ca4:	00000000 	nop
9d004ca8:	54a00030 	bnezl	a1,9d004d6c <__fmt_x+0x188>
9d004cac:	2610ffff 	addiu	s0,s0,-1
9d004cb0:	1140000b 	beqz	t2,9d004ce0 <__fmt_x+0xfc>
9d004cb4:	00000000 	nop
9d004cb8:	8cc20000 	lw	v0,0(a2)
9d004cbc:	8cc30004 	lw	v1,4(a2)
9d004cc0:	00431025 	or	v0,v0,v1
9d004cc4:	10400006 	beqz	v0,9d004ce0 <__fmt_x+0xfc>
9d004cc8:	02f01021 	addu	v0,s7,s0
9d004ccc:	2610fffe 	addiu	s0,s0,-2
9d004cd0:	a049ffff 	sb	t1,-1(v0)
9d004cd4:	24030030 	li	v1,48
9d004cd8:	02f01021 	addu	v0,s7,s0
9d004cdc:	a0430000 	sb	v1,0(v0)
9d004ce0:	51600006 	beqzl	t3,9d004cfc <__fmt_x+0x118>
9d004ce4:	8ea60010 	lw	a2,16(s5)
9d004ce8:	2610ffff 	addiu	s0,s0,-1
9d004cec:	02f01021 	addu	v0,s7,s0
9d004cf0:	24030020 	li	v1,32
9d004cf4:	a0430000 	sb	v1,0(v0)
9d004cf8:	8ea60010 	lw	a2,16(s5)
9d004cfc:	afbe0010 	sw	s8,16(sp)
9d004d00:	02f02821 	addu	a1,s7,s0
9d004d04:	24c6ffff 	addiu	a2,a2,-1
9d004d08:	00d03023 	subu	a2,a2,s0
9d004d0c:	0f40164a 	jal	9d005928 <__pad>
9d004d10:	02602025 	move	a0,s3
9d004d14:	8e630004 	lw	v1,4(s3)
9d004d18:	30630100 	andi	v1,v1,0x100
9d004d1c:	10600004 	beqz	v1,9d004d30 <__fmt_x+0x14c>
9d004d20:	8fbf0054 	lw	ra,84(sp)
9d004d24:	8ea30004 	lw	v1,4(s5)
9d004d28:	0043202a 	slt	a0,v0,v1
9d004d2c:	0064100b 	movn	v0,v1,a0
9d004d30:	8fbe0050 	lw	s8,80(sp)
9d004d34:	8fb7004c 	lw	s7,76(sp)
9d004d38:	8fb60048 	lw	s6,72(sp)
9d004d3c:	8fb50044 	lw	s5,68(sp)
9d004d40:	8fb40040 	lw	s4,64(sp)
9d004d44:	8fb3003c 	lw	s3,60(sp)
9d004d48:	8fb20038 	lw	s2,56(sp)
9d004d4c:	8fb10034 	lw	s1,52(sp)
9d004d50:	8fb00030 	lw	s0,48(sp)
9d004d54:	03e00008 	jr	ra
9d004d58:	27bd0058 	addiu	sp,sp,88
9d004d5c:	1000ffb5 	b	9d004c34 <__fmt_x+0x50>
9d004d60:	24110001 	li	s1,1
9d004d64:	2864000a 	slti	a0,v1,10
9d004d68:	2610ffff 	addiu	s0,s0,-1
9d004d6c:	10800002 	beqz	a0,9d004d78 <__fmt_x+0x194>
9d004d70:	24620057 	addiu	v0,v1,87
9d004d74:	24620030 	addiu	v0,v1,48
9d004d78:	12800017 	beqz	s4,9d004dd8 <__fmt_x+0x1f4>
9d004d7c:	02f01821 	addu	v1,s7,s0
9d004d80:	34430020 	ori	v1,v0,0x20
9d004d84:	2463ff9f 	addiu	v1,v1,-97
9d004d88:	2c63001a 	sltiu	v1,v1,26
9d004d8c:	10600012 	beqz	v1,9d004dd8 <__fmt_x+0x1f4>
9d004d90:	02f01821 	addu	v1,s7,s0
9d004d94:	00402025 	move	a0,v0
9d004d98:	afa50028 	sw	a1,40(sp)
9d004d9c:	afa80024 	sw	t0,36(sp)
9d004da0:	afa90064 	sw	t1,100(sp)
9d004da4:	afa60060 	sw	a2,96(sp)
9d004da8:	afa70020 	sw	a3,32(sp)
9d004dac:	afab001c 	sw	t3,28(sp)
9d004db0:	0f401a53 	jal	9d00694c <toupper>
9d004db4:	afaa0018 	sw	t2,24(sp)
9d004db8:	8fa50028 	lw	a1,40(sp)
9d004dbc:	8fa80024 	lw	t0,36(sp)
9d004dc0:	8fa90064 	lw	t1,100(sp)
9d004dc4:	8fa60060 	lw	a2,96(sp)
9d004dc8:	8fa70020 	lw	a3,32(sp)
9d004dcc:	8fab001c 	lw	t3,28(sp)
9d004dd0:	8faa0018 	lw	t2,24(sp)
9d004dd4:	02f01821 	addu	v1,s7,s0
9d004dd8:	a0620000 	sb	v0,0(v1)
9d004ddc:	0016b102 	srl	s6,s6,0x4
9d004de0:	00081700 	sll	v0,t0,0x1c
9d004de4:	2631ffff 	addiu	s1,s1,-1
9d004de8:	0056b025 	or	s6,v0,s6
9d004dec:	1000ffa4 	b	9d004c80 <__fmt_x+0x9c>
9d004df0:	00084102 	srl	t0,t0,0x4

Disassembly of section .text.__floatdidf:

9d004df4 <__floatdidf>:
9d004df4:	00851025 	or	v0,a0,a1
9d004df8:	1040003e 	beqz	v0,9d004ef4 <__floatdidf+0x100>
9d004dfc:	00a03825 	move	a3,a1
9d004e00:	24820001 	addiu	v0,a0,1
9d004e04:	0044302b 	sltu	a2,v0,a0
9d004e08:	00c53021 	addu	a2,a2,a1
9d004e0c:	7c020844 	ins	v0,zero,0x1,0x1
9d004e10:	00051fc2 	srl	v1,a1,0x1f
9d004e14:	00463025 	or	a2,v0,a2
9d004e18:	00801025 	move	v0,a0
9d004e1c:	10c00038 	beqz	a2,9d004f00 <__floatdidf+0x10c>
9d004e20:	00031ac0 	sll	v1,v1,0xb
9d004e24:	2406000a 	li	a2,10
9d004e28:	10860040 	beq	a0,a2,9d004f2c <__floatdidf+0x138>
9d004e2c:	2406fff6 	li	a2,-10
9d004e30:	1086005f 	beq	a0,a2,9d004fb0 <__floatdidf+0x1bc>
9d004e34:	2406ffff 	li	a2,-1
9d004e38:	04a00035 	bltz	a1,9d004f10 <__floatdidf+0x11c>
9d004e3c:	00000000 	nop
9d004e40:	14e00042 	bnez	a3,9d004f4c <__floatdidf+0x158>
9d004e44:	70463020 	clz	a2,v0
9d004e48:	24c60020 	addiu	a2,a2,32
9d004e4c:	24c4fff8 	addiu	a0,a2,-8
9d004e50:	00024042 	srl	t0,v0,0x1
9d004e54:	00044827 	nor	t1,zero,a0
9d004e58:	00872804 	sllv	a1,a3,a0
9d004e5c:	01284006 	srlv	t0,t0,t1
9d004e60:	30870020 	andi	a3,a0,0x20
9d004e64:	01052825 	or	a1,t0,a1
9d004e68:	00822004 	sllv	a0,v0,a0
9d004e6c:	00801025 	move	v0,a0
9d004e70:	2408043e 	li	t0,1086
9d004e74:	00a7200a 	movz	a0,a1,a3
9d004e78:	0007100b 	movn	v0,zero,a3
9d004e7c:	01064023 	subu	t0,t0,a2
9d004e80:	00803825 	move	a3,a0
9d004e84:	30440007 	andi	a0,v0,0x7
9d004e88:	10800010 	beqz	a0,9d004ecc <__floatdidf+0xd8>
9d004e8c:	000720c2 	srl	a0,a3,0x3
9d004e90:	7c4500c0 	ext	a1,v0,0x3,0x1
9d004e94:	24a50003 	addiu	a1,a1,3
9d004e98:	00452821 	addu	a1,v0,a1
9d004e9c:	00a2102b 	sltu	v0,a1,v0
9d004ea0:	00473821 	addu	a3,v0,a3
9d004ea4:	7ce40600 	ext	a0,a3,0x18,0x1
9d004ea8:	10800007 	beqz	a0,9d004ec8 <__floatdidf+0xd4>
9d004eac:	00a01025 	move	v0,a1
9d004eb0:	000727c0 	sll	a0,a3,0x1f
9d004eb4:	00051042 	srl	v0,a1,0x1
9d004eb8:	2408043f 	li	t0,1087
9d004ebc:	00821025 	or	v0,a0,v0
9d004ec0:	00073842 	srl	a3,a3,0x1
9d004ec4:	01064023 	subu	t0,t0,a2
9d004ec8:	000720c2 	srl	a0,a3,0x3
9d004ecc:	00072f40 	sll	a1,a3,0x1d
9d004ed0:	000210c2 	srl	v0,v0,0x3
9d004ed4:	7c860500 	ext	a2,a0,0x14,0x1
9d004ed8:	10c00003 	beqz	a2,9d004ee8 <__floatdidf+0xf4>
9d004edc:	00a21025 	or	v0,a1,v0
9d004ee0:	7c849800 	ext	a0,a0,0x0,0x14
9d004ee4:	00681825 	or	v1,v1,t0
9d004ee8:	00031d00 	sll	v1,v1,0x14
9d004eec:	03e00008 	jr	ra
9d004ef0:	00641825 	or	v1,v1,a0
9d004ef4:	00001025 	move	v0,zero
9d004ef8:	03e00008 	jr	ra
9d004efc:	00001825 	move	v1,zero
9d004f00:	346303ff 	ori	v1,v1,0x3ff
9d004f04:	00031d00 	sll	v1,v1,0x14
9d004f08:	03e00008 	jr	ra
9d004f0c:	00001025 	move	v0,zero
9d004f10:	5080002f 	beqzl	a0,9d004fd0 <__floatdidf+0x1dc>
9d004f14:	3c028000 	lui	v0,0x8000
9d004f18:	00041023 	negu	v0,a0
9d004f1c:	0002382b 	sltu	a3,zero,v0
9d004f20:	00052823 	negu	a1,a1
9d004f24:	1000ffc6 	b	9d004e40 <__floatdidf+0x4c>
9d004f28:	00a73823 	subu	a3,a1,a3
9d004f2c:	14a0ffc0 	bnez	a1,9d004e30 <__floatdidf+0x3c>
9d004f30:	00000000 	nop
9d004f34:	34630402 	ori	v1,v1,0x402
9d004f38:	3c040004 	lui	a0,0x4
9d004f3c:	00031d00 	sll	v1,v1,0x14
9d004f40:	00001025 	move	v0,zero
9d004f44:	03e00008 	jr	ra
9d004f48:	00641825 	or	v1,v1,a0
9d004f4c:	70e63020 	clz	a2,a3
9d004f50:	24040008 	li	a0,8
9d004f54:	2408043e 	li	t0,1086
9d004f58:	00862023 	subu	a0,a0,a2
9d004f5c:	18800018 	blez	a0,9d004fc0 <__floatdidf+0x1cc>
9d004f60:	01064023 	subu	t0,t0,a2
9d004f64:	00042827 	nor	a1,zero,a0
9d004f68:	00075040 	sll	t2,a3,0x1
9d004f6c:	00aa5004 	sllv	t2,t2,a1
9d004f70:	00824806 	srlv	t1,v0,a0
9d004f74:	24c5fff8 	addiu	a1,a2,-8
9d004f78:	308b0020 	andi	t3,a0,0x20
9d004f7c:	01494825 	or	t1,t2,t1
9d004f80:	00872006 	srlv	a0,a3,a0
9d004f84:	30ac0020 	andi	t4,a1,0x20
9d004f88:	008b480b 	movn	t1,a0,t3
9d004f8c:	00405025 	move	t2,v0
9d004f90:	15800017 	bnez	t4,9d004ff0 <__floatdidf+0x1fc>
9d004f94:	000b200b 	movn	a0,zero,t3
9d004f98:	00a72804 	sllv	a1,a3,a1
9d004f9c:	00a21025 	or	v0,a1,v0
9d004fa0:	0002102b 	sltu	v0,zero,v0
9d004fa4:	00491025 	or	v0,v0,t1
9d004fa8:	1000ffb6 	b	9d004e84 <__floatdidf+0x90>
9d004fac:	00803825 	move	a3,a0
9d004fb0:	14a6ffa1 	bne	a1,a2,9d004e38 <__floatdidf+0x44>
9d004fb4:	00000000 	nop
9d004fb8:	1000ffdf 	b	9d004f38 <__floatdidf+0x144>
9d004fbc:	34630402 	ori	v1,v1,0x402
9d004fc0:	1480ffa3 	bnez	a0,9d004e50 <__floatdidf+0x5c>
9d004fc4:	24c4fff8 	addiu	a0,a2,-8
9d004fc8:	1000ffae 	b	9d004e84 <__floatdidf+0x90>
9d004fcc:	24060008 	li	a2,8
9d004fd0:	54a2ffd2 	bnel	a1,v0,9d004f1c <__floatdidf+0x128>
9d004fd4:	00041023 	negu	v0,a0
9d004fd8:	00003025 	move	a2,zero
9d004fdc:	2408043e 	li	t0,1086
9d004fe0:	00005025 	move	t2,zero
9d004fe4:	2405fff8 	li	a1,-8
9d004fe8:	00004825 	move	t1,zero
9d004fec:	3c040080 	lui	a0,0x80
9d004ff0:	1000ffeb 	b	9d004fa0 <__floatdidf+0x1ac>
9d004ff4:	00aa1004 	sllv	v0,t2,a1

Disassembly of section .text:

9d004ff8 <NU32_Startup>:

// Perform startup routines:
//  Make NU32_LED1 and NU32_LED2 pins outputs (NU32_USER is by default an input)
//  Initialize the serial port - UART3 (no interrupt) 
//  Enable interrupts
void NU32_Startup() {
9d004ff8:	27bdfff8 	addiu	sp,sp,-8
9d004ffc:	afbf0004 	sw	ra,4(sp)
  // disable interrupts
  __builtin_disable_interrupts();
9d005000:	41626000 	di	v0
9d005004:	000000c0 	ehb
  // see Chapter 2 "CPU for Devices with M4K Core" of the PIC32 reference manual
  // most of the other bits have prescribed values
  // microchip does not provide a _CP0_SET_CONFIG macro, so we directly use
  // the compiler built-in command _mtc0
  // to disable cache, use 0xa4210582 
  __builtin_mtc0(_CP0_CONFIG, _CP0_CONFIG_SELECT, 0xa4210583); 
9d005008:	3c02a421 	lui	v0,0xa421
9d00500c:	24420583 	addiu	v0,v0,1411
9d005010:	40828000 	mtc0	v0,c0_config
9d005014:	000000c0 	ehb
  
  // set the prefectch cache wait state to 2, as per the
  // electrical characteristics data sheet
  CHECONbits.PFMWS = 0x2;   
9d005018:	3c02bf88 	lui	v0,0xbf88
9d00501c:	8c434000 	lw	v1,16384(v0)
9d005020:	24050002 	li	a1,2
9d005024:	7ca31004 	ins	v1,a1,0x0,0x3
9d005028:	ac434000 	sw	v1,16384(v0)

  //enable prefetch for cacheable and noncacheable memory
  CHECONbits.PREFEN = 0x3; 
9d00502c:	8c434000 	lw	v1,16384(v0)
9d005030:	24040003 	li	a0,3
9d005034:	7c832904 	ins	v1,a0,0x4,0x2
9d005038:	ac434000 	sw	v1,16384(v0)

  // 0 data RAM access wait states
  BMXCONbits.BMXWSDRM = 0x0;
9d00503c:	3c02bf88 	lui	v0,0xbf88
9d005040:	8c432000 	lw	v1,8192(v0)
9d005044:	7c033184 	ins	v1,zero,0x6,0x1
9d005048:	ac432000 	sw	v1,8192(v0)
  
  // enable multi vector interrupts
  INTCONbits.MVEC = 0x1;
9d00504c:	3c02bf88 	lui	v0,0xbf88
9d005050:	8c461000 	lw	a2,4096(v0)
9d005054:	24030001 	li	v1,1
9d005058:	7c666304 	ins	a2,v1,0xc,0x1
9d00505c:	ac461000 	sw	a2,4096(v0)

  // disable JTAG to get B10, B11, B12 and B13 back
  DDPCONbits.JTAGEN = 0;
9d005060:	3c02bf81 	lui	v0,0xbf81
9d005064:	9046f200 	lbu	a2,-3584(v0)
9d005068:	7c0618c4 	ins	a2,zero,0x3,0x1
9d00506c:	a046f200 	sb	a2,-3584(v0)

  TRISFCLR = 0x0003;  // Make F0 and F1 outputs (LED1 and LED2)
9d005070:	3c02bf88 	lui	v0,0xbf88
9d005074:	ac446144 	sw	a0,24900(v0)
  NU32_LED1 = 1;      // LED1 is off
9d005078:	3c02bf88 	lui	v0,0xbf88
9d00507c:	90446160 	lbu	a0,24928(v0)
9d005080:	7c640004 	ins	a0,v1,0x0,0x1
9d005084:	a0446160 	sb	a0,24928(v0)
  NU32_LED2 = 0;      // LED2 is on
9d005088:	90446160 	lbu	a0,24928(v0)
9d00508c:	7c040844 	ins	a0,zero,0x1,0x1
9d005090:	a0446160 	sb	a0,24928(v0)

  // turn on UART3 without an interrupt
  U3MODEbits.BRGH = 0; // set baud to NU32_DESIRED_BAUD
9d005094:	3c02bf80 	lui	v0,0xbf80
9d005098:	94446400 	lhu	a0,25600(v0)
9d00509c:	7c0418c4 	ins	a0,zero,0x3,0x1
9d0050a0:	a4446400 	sh	a0,25600(v0)
  U3BRG = ((NU32_SYS_FREQ / NU32_DESIRED_BAUD) / 16) - 1;
9d0050a4:	3c04bf80 	lui	a0,0xbf80
9d0050a8:	24060014 	li	a2,20
9d0050ac:	ac866440 	sw	a2,25664(a0)

  // 8 bit, no parity bit, and 1 stop bit (8N1 setup)
  U3MODEbits.PDSEL = 0;
9d0050b0:	94446400 	lhu	a0,25600(v0)
9d0050b4:	7c041044 	ins	a0,zero,0x1,0x2
9d0050b8:	a4446400 	sh	a0,25600(v0)
  U3MODEbits.STSEL = 0;
9d0050bc:	94446400 	lhu	a0,25600(v0)
9d0050c0:	7c040004 	ins	a0,zero,0x0,0x1
9d0050c4:	a4446400 	sh	a0,25600(v0)

  // configure TX & RX pins as output & input pins
  U3STAbits.UTXEN = 1;
9d0050c8:	3c04bf80 	lui	a0,0xbf80
9d0050cc:	8c866410 	lw	a2,25616(a0)
9d0050d0:	7c665284 	ins	a2,v1,0xa,0x1
9d0050d4:	ac866410 	sw	a2,25616(a0)
  U3STAbits.URXEN = 1;
9d0050d8:	8c866410 	lw	a2,25616(a0)
9d0050dc:	7c666304 	ins	a2,v1,0xc,0x1
9d0050e0:	ac866410 	sw	a2,25616(a0)
  // configure hardware flow control using RTS and CTS
  U3MODEbits.UEN = 2;
9d0050e4:	94446400 	lhu	a0,25600(v0)
9d0050e8:	7ca44a04 	ins	a0,a1,0x8,0x2
9d0050ec:	a4446400 	sh	a0,25600(v0)

  // enable the uart
  U3MODEbits.ON = 1;
9d0050f0:	94446400 	lhu	a0,25600(v0)
9d0050f4:	7c647bc4 	ins	a0,v1,0xf,0x1
9d0050f8:	a4446400 	sh	a0,25600(v0)

  __builtin_enable_interrupts();
9d0050fc:	41626020 	ei	v0
}
9d005100:	8fbf0004 	lw	ra,4(sp)
9d005104:	03e00008 	jr	ra
9d005108:	27bd0008 	addiu	sp,sp,8

9d00510c <NU32_ReadUART3>:
// Read from UART3
// block other functions until you get a '\r' or '\n'
// send the pointer to your char array and the number of elements in the array
void NU32_ReadUART3(char * message, int maxLength) {
  char data = 0;
  int complete = 0, num_bytes = 0;
9d00510c:	00003025 	move	a2,zero
  // loop until you get a '\r' or '\n'
  while (!complete) {
    if (U3STAbits.URXDA) { // if data is available
9d005110:	3c03bf80 	lui	v1,0xbf80
      data = U3RXREG;      // read the data
9d005114:	3c09bf80 	lui	t1,0xbf80
      if ((data == '\n') || (data == '\r')) {
9d005118:	2408000a 	li	t0,10
9d00511c:	240a000d 	li	t2,13
    if (U3STAbits.URXDA) { // if data is available
9d005120:	8c626410 	lw	v0,25616(v1)
9d005124:	30420001 	andi	v0,v0,0x1
9d005128:	1040fffd 	beqz	v0,9d005120 <NU32_ReadUART3+0x14>
9d00512c:	00000000 	nop
      data = U3RXREG;      // read the data
9d005130:	8d226430 	lw	v0,25648(t1)
9d005134:	7c021420 	seb	v0,v0
      if ((data == '\n') || (data == '\r')) {
9d005138:	50480009 	beql	v0,t0,9d005160 <NU32_ReadUART3+0x54>
9d00513c:	00862021 	addu	a0,a0,a2
9d005140:	104a0006 	beq	v0,t2,9d00515c <NU32_ReadUART3+0x50>
9d005144:	00863821 	addu	a3,a0,a2
        complete = 1;
      } else {
        message[num_bytes] = data;
9d005148:	a0e20000 	sb	v0,0(a3)
        ++num_bytes;
9d00514c:	24c60001 	addiu	a2,a2,1
        // roll over if the array is too small
        if (num_bytes >= maxLength) {
9d005150:	00c5102a 	slt	v0,a2,a1
9d005154:	1000fff2 	b	9d005120 <NU32_ReadUART3+0x14>
9d005158:	0002300a 	movz	a2,zero,v0
        }
      }
    }
  }
  // end the string
  message[num_bytes] = '\0';
9d00515c:	00862021 	addu	a0,a0,a2
}
9d005160:	03e00008 	jr	ra
9d005164:	a0800000 	sb	zero,0(a0)

9d005168 <NU32_WriteUART3>:

// Write a character array using UART3
void NU32_WriteUART3(const char * string) {
  while (*string != '\0') {
9d005168:	80850000 	lb	a1,0(a0)
9d00516c:	10a0000b 	beqz	a1,9d00519c <NU32_WriteUART3+0x34>
9d005170:	3c03bf80 	lui	v1,0xbf80
    while (U3STAbits.UTXBF) {
      ; // wait until tx buffer isn't full
    }
    U3TXREG = *string;
9d005174:	3c06bf80 	lui	a2,0xbf80
    while (U3STAbits.UTXBF) {
9d005178:	8c626410 	lw	v0,25616(v1)
9d00517c:	7c420240 	ext	v0,v0,0x9,0x1
9d005180:	1440fffd 	bnez	v0,9d005178 <NU32_WriteUART3+0x10>
9d005184:	00000000 	nop
    U3TXREG = *string;
9d005188:	acc56420 	sw	a1,25632(a2)
    ++string;
9d00518c:	24840001 	addiu	a0,a0,1
  while (*string != '\0') {
9d005190:	80850000 	lb	a1,0(a0)
9d005194:	14a0fff8 	bnez	a1,9d005178 <NU32_WriteUART3+0x10>
9d005198:	00000000 	nop
  }
}
9d00519c:	03e00008 	jr	ra
9d0051a0:	00000000 	nop

Disassembly of section .text.__pop_int:

9d0051a4 <__pop_int>:
9d0051a4:	24020088 	li	v0,136
9d0051a8:	10a2003f 	beq	a1,v0,9d0052a8 <__pop_int+0x104>
9d0051ac:	28a20089 	slti	v0,a1,137
9d0051b0:	1040001b 	beqz	v0,9d005220 <__pop_int+0x7c>
9d0051b4:	240200a0 	li	v0,160
9d0051b8:	24020081 	li	v0,129
9d0051bc:	10a20053 	beq	a1,v0,9d00530c <__pop_int+0x168>
9d0051c0:	28a20082 	slti	v0,a1,130
9d0051c4:	10400006 	beqz	v0,9d0051e0 <__pop_int+0x3c>
9d0051c8:	24020082 	li	v0,130
9d0051cc:	24020080 	li	v0,128
9d0051d0:	50a2004f 	beql	a1,v0,9d005310 <__pop_int+0x16c>
9d0051d4:	8ce20000 	lw	v0,0(a3)
9d0051d8:	03e00008 	jr	ra
9d0051dc:	00001025 	move	v0,zero
9d0051e0:	50a2003a 	beql	a1,v0,9d0052cc <__pop_int+0x128>
9d0051e4:	8ce20000 	lw	v0,0(a3)
9d0051e8:	24020084 	li	v0,132
9d0051ec:	14a2fffa 	bne	a1,v0,9d0051d8 <__pop_int+0x34>
9d0051f0:	00000000 	nop
9d0051f4:	8ce20000 	lw	v0,0(a3)
9d0051f8:	24430004 	addiu	v1,v0,4
9d0051fc:	8c420000 	lw	v0,0(v0)
9d005200:	10c00026 	beqz	a2,9d00529c <__pop_int+0xf8>
9d005204:	ace30000 	sw	v1,0(a3)
9d005208:	7c021620 	seh	v0,v0
9d00520c:	ac820000 	sw	v0,0(a0)
9d005210:	000217c3 	sra	v0,v0,0x1f
9d005214:	ac820004 	sw	v0,4(a0)
9d005218:	03e00008 	jr	ra
9d00521c:	24020001 	li	v0,1
9d005220:	50a20036 	beql	a1,v0,9d0052fc <__pop_int+0x158>
9d005224:	8ce20000 	lw	v0,0(a3)
9d005228:	28a200a1 	slti	v0,a1,161
9d00522c:	10400011 	beqz	v0,9d005274 <__pop_int+0xd0>
9d005230:	240200c0 	li	v0,192
9d005234:	24020090 	li	v0,144
9d005238:	14a2ffe7 	bne	a1,v0,9d0051d8 <__pop_int+0x34>
9d00523c:	00000000 	nop
9d005240:	8ce20000 	lw	v0,0(a3)
9d005244:	24420007 	addiu	v0,v0,7
9d005248:	7c021004 	ins	v0,zero,0x0,0x3
9d00524c:	8c480000 	lw	t0,0(v0)
9d005250:	8c490004 	lw	t1,4(v0)
9d005254:	24420008 	addiu	v0,v0,8
9d005258:	ace20000 	sw	v0,0(a3)
9d00525c:	ac880000 	sw	t0,0(a0)
9d005260:	ac890004 	sw	t1,4(a0)
9d005264:	10c00001 	beqz	a2,9d00526c <__pop_int+0xc8>
9d005268:	24020001 	li	v0,1
9d00526c:	03e00008 	jr	ra
9d005270:	00000000 	nop
9d005274:	50a20005 	beql	a1,v0,9d00528c <__pop_int+0xe8>
9d005278:	8ce20000 	lw	v0,0(a3)
9d00527c:	240200f0 	li	v0,240
9d005280:	14a2ffd5 	bne	a1,v0,9d0051d8 <__pop_int+0x34>
9d005284:	00000000 	nop
9d005288:	8ce20000 	lw	v0,0(a3)
9d00528c:	24430004 	addiu	v1,v0,4
9d005290:	ace30000 	sw	v1,0(a3)
9d005294:	10000002 	b	9d0052a0 <__pop_int+0xfc>
9d005298:	8c420000 	lw	v0,0(v0)
9d00529c:	3042ffff 	andi	v0,v0,0xffff
9d0052a0:	10000020 	b	9d005324 <__pop_int+0x180>
9d0052a4:	ac820000 	sw	v0,0(a0)
9d0052a8:	8ce20000 	lw	v0,0(a3)
9d0052ac:	24430004 	addiu	v1,v0,4
9d0052b0:	8c420000 	lw	v0,0(v0)
9d0052b4:	10c00003 	beqz	a2,9d0052c4 <__pop_int+0x120>
9d0052b8:	ace30000 	sw	v1,0(a3)
9d0052bc:	1000ffd3 	b	9d00520c <__pop_int+0x68>
9d0052c0:	7c021420 	seb	v0,v0
9d0052c4:	1000fff6 	b	9d0052a0 <__pop_int+0xfc>
9d0052c8:	304200ff 	andi	v0,v0,0xff
9d0052cc:	24420007 	addiu	v0,v0,7
9d0052d0:	7c021004 	ins	v0,zero,0x0,0x3
9d0052d4:	8c480000 	lw	t0,0(v0)
9d0052d8:	8c490004 	lw	t1,4(v0)
9d0052dc:	24420008 	addiu	v0,v0,8
9d0052e0:	ace20000 	sw	v0,0(a3)
9d0052e4:	ac880000 	sw	t0,0(a0)
9d0052e8:	ac890004 	sw	t1,4(a0)
9d0052ec:	10c0ffdf 	beqz	a2,9d00526c <__pop_int+0xc8>
9d0052f0:	24020001 	li	v0,1
9d0052f4:	03e00008 	jr	ra
9d0052f8:	00000000 	nop
9d0052fc:	24430004 	addiu	v1,v0,4
9d005300:	ace30000 	sw	v1,0(a3)
9d005304:	1000ffc1 	b	9d00520c <__pop_int+0x68>
9d005308:	8c420000 	lw	v0,0(v0)
9d00530c:	8ce20000 	lw	v0,0(a3)
9d005310:	24430004 	addiu	v1,v0,4
9d005314:	ace30000 	sw	v1,0(a3)
9d005318:	8c420000 	lw	v0,0(v0)
9d00531c:	14c0ffbc 	bnez	a2,9d005210 <__pop_int+0x6c>
9d005320:	ac820000 	sw	v0,0(a0)
9d005324:	1000ffbc 	b	9d005218 <__pop_int+0x74>
9d005328:	ac800004 	sw	zero,4(a0)

Disassembly of section .text.__fmt_d:

9d00532c <__fmt_d>:
9d00532c:	27bdffc0 	addiu	sp,sp,-64
9d005330:	afb1002c 	sw	s1,44(sp)
9d005334:	00808825 	move	s1,a0
9d005338:	00c02025 	move	a0,a2
9d00533c:	8c870004 	lw	a3,4(a0)
9d005340:	8ca20000 	lw	v0,0(a1)
9d005344:	afb20030 	sw	s2,48(sp)
9d005348:	000797c2 	srl	s2,a3,0x1f
9d00534c:	afb40038 	sw	s4,56(sp)
9d005350:	afb30034 	sw	s3,52(sp)
9d005354:	afb00028 	sw	s0,40(sp)
9d005358:	afbf003c 	sw	ra,60(sp)
9d00535c:	00a08025 	move	s0,a1
9d005360:	8ca30004 	lw	v1,4(a1)
9d005364:	8cb30008 	lw	s3,8(a1)
9d005368:	afa20020 	sw	v0,32(sp)
9d00536c:	8cb4000c 	lw	s4,12(a1)
9d005370:	12400040 	beqz	s2,9d005474 <__fmt_d+0x148>
9d005374:	8cc60000 	lw	a2,0(a2)
9d005378:	00063023 	negu	a2,a2
9d00537c:	0006202b 	sltu	a0,zero,a2
9d005380:	00073823 	negu	a3,a3
9d005384:	04600008 	bltz	v1,9d0053a8 <__fmt_d+0x7c>
9d005388:	00e43823 	subu	a3,a3,a0
9d00538c:	7c020844 	ins	v0,zero,0x1,0x1
9d005390:	16400005 	bnez	s2,9d0053a8 <__fmt_d+0x7c>
9d005394:	afa20020 	sw	v0,32(sp)
9d005398:	8fa20020 	lw	v0,32(sp)
9d00539c:	30430004 	andi	v1,v0,0x4
9d0053a0:	1060002c 	beqz	v1,9d005454 <__fmt_d+0x128>
9d0053a4:	7c4200c0 	ext	v0,v0,0x3,0x1
9d0053a8:	2662ffff 	addiu	v0,s3,-1
9d0053ac:	27a30020 	addiu	v1,sp,32
9d0053b0:	afa30018 	sw	v1,24(sp)
9d0053b4:	2403000a 	li	v1,10
9d0053b8:	afa30014 	sw	v1,20(sp)
9d0053bc:	afa20010 	sw	v0,16(sp)
9d0053c0:	0f401521 	jal	9d005484 <__cvt_u>
9d0053c4:	02002025 	move	a0,s0
9d0053c8:	16400006 	bnez	s2,9d0053e4 <__fmt_d+0xb8>
9d0053cc:	2403002d 	li	v1,45
9d0053d0:	8fa30020 	lw	v1,32(sp)
9d0053d4:	30640004 	andi	a0,v1,0x4
9d0053d8:	10800020 	beqz	a0,9d00545c <__fmt_d+0x130>
9d0053dc:	30630008 	andi	v1,v1,0x8
9d0053e0:	2403002d 	li	v1,45
9d0053e4:	2442ffff 	addiu	v0,v0,-1
9d0053e8:	2404002b 	li	a0,43
9d0053ec:	0072200b 	movn	a0,v1,s2
9d0053f0:	02821821 	addu	v1,s4,v0
9d0053f4:	a0640000 	sb	a0,0(v1)
9d0053f8:	8e060010 	lw	a2,16(s0)
9d0053fc:	8fa30020 	lw	v1,32(sp)
9d005400:	02603825 	move	a3,s3
9d005404:	24c6ffff 	addiu	a2,a2,-1
9d005408:	afa30010 	sw	v1,16(sp)
9d00540c:	00c23023 	subu	a2,a2,v0
9d005410:	02822821 	addu	a1,s4,v0
9d005414:	0f40164a 	jal	9d005928 <__pad>
9d005418:	02202025 	move	a0,s1
9d00541c:	8e230004 	lw	v1,4(s1)
9d005420:	30630100 	andi	v1,v1,0x100
9d005424:	10600004 	beqz	v1,9d005438 <__fmt_d+0x10c>
9d005428:	8fbf003c 	lw	ra,60(sp)
9d00542c:	8e030004 	lw	v1,4(s0)
9d005430:	0043202a 	slt	a0,v0,v1
9d005434:	0064100b 	movn	v0,v1,a0
9d005438:	8fb40038 	lw	s4,56(sp)
9d00543c:	8fb30034 	lw	s3,52(sp)
9d005440:	8fb20030 	lw	s2,48(sp)
9d005444:	8fb1002c 	lw	s1,44(sp)
9d005448:	8fb00028 	lw	s0,40(sp)
9d00544c:	03e00008 	jr	ra
9d005450:	27bd0040 	addiu	sp,sp,64
9d005454:	1000ffd5 	b	9d0053ac <__fmt_d+0x80>
9d005458:	02621023 	subu	v0,s3,v0
9d00545c:	5060ffe7 	beqzl	v1,9d0053fc <__fmt_d+0xd0>
9d005460:	8e060010 	lw	a2,16(s0)
9d005464:	2442ffff 	addiu	v0,v0,-1
9d005468:	02821821 	addu	v1,s4,v0
9d00546c:	1000ffe1 	b	9d0053f4 <__fmt_d+0xc8>
9d005470:	24040020 	li	a0,32
9d005474:	0463ffc6 	bgezl	v1,9d005390 <__fmt_d+0x64>
9d005478:	7c020844 	ins	v0,zero,0x1,0x1
9d00547c:	1000ffc7 	b	9d00539c <__fmt_d+0x70>
9d005480:	8fa20020 	lw	v0,32(sp)

Disassembly of section .text.__cvt_u:

9d005484 <__cvt_u>:
9d005484:	27bdffc0 	addiu	sp,sp,-64
9d005488:	8c820010 	lw	v0,16(a0)
9d00548c:	afb70034 	sw	s7,52(sp)
9d005490:	8c880004 	lw	t0,4(a0)
9d005494:	8fb70058 	lw	s7,88(sp)
9d005498:	2442ffff 	addiu	v0,v0,-1
9d00549c:	afbe0038 	sw	s8,56(sp)
9d0054a0:	afb40028 	sw	s4,40(sp)
9d0054a4:	afb30024 	sw	s3,36(sp)
9d0054a8:	afb20020 	sw	s2,32(sp)
9d0054ac:	afb1001c 	sw	s1,28(sp)
9d0054b0:	afb00018 	sw	s0,24(sp)
9d0054b4:	afbf003c 	sw	ra,60(sp)
9d0054b8:	afb60030 	sw	s6,48(sp)
9d0054bc:	afb5002c 	sw	s5,44(sp)
9d0054c0:	00c08025 	move	s0,a2
9d0054c4:	00e08825 	move	s1,a3
9d0054c8:	8fb30054 	lw	s3,84(sp)
9d0054cc:	8c94000c 	lw	s4,12(a0)
9d0054d0:	8efe0000 	lw	s8,0(s7)
9d0054d4:	05010002 	bgez	t0,9d0054e0 <__cvt_u+0x5c>
9d0054d8:	00409025 	move	s2,v0
9d0054dc:	24080001 	li	t0,1
9d0054e0:	02821021 	addu	v0,s4,v0
9d0054e4:	a0400000 	sb	zero,0(v0)
9d0054e8:	0000a825 	move	s5,zero
9d0054ec:	24090001 	li	t1,1
9d0054f0:	33de0002 	andi	s8,s8,0x2
9d0054f4:	0013b7c3 	sra	s6,s3,0x1f
9d0054f8:	1e400010 	bgtz	s2,9d00553c <__cvt_u+0xb8>
9d0054fc:	02111025 	or	v0,s0,s1
9d005500:	5120002e 	beqzl	t1,9d0055bc <__cvt_u+0x138>
9d005504:	8ee20000 	lw	v0,0(s7)
9d005508:	8fbf003c 	lw	ra,60(sp)
9d00550c:	02401025 	move	v0,s2
9d005510:	8fbe0038 	lw	s8,56(sp)
9d005514:	8fb70034 	lw	s7,52(sp)
9d005518:	8fb60030 	lw	s6,48(sp)
9d00551c:	8fb5002c 	lw	s5,44(sp)
9d005520:	8fb40028 	lw	s4,40(sp)
9d005524:	8fb30024 	lw	s3,36(sp)
9d005528:	8fb20020 	lw	s2,32(sp)
9d00552c:	8fb1001c 	lw	s1,28(sp)
9d005530:	8fb00018 	lw	s0,24(sp)
9d005534:	03e00008 	jr	ra
9d005538:	27bd0040 	addiu	sp,sp,64
9d00553c:	1440000a 	bnez	v0,9d005568 <__cvt_u+0xe4>
9d005540:	02002025 	move	a0,s0
9d005544:	01151023 	subu	v0,t0,s5
9d005548:	1c400008 	bgtz	v0,9d00556c <__cvt_u+0xe8>
9d00554c:	02202825 	move	a1,s1
9d005550:	8fa20050 	lw	v0,80(sp)
9d005554:	00551023 	subu	v0,v0,s5
9d005558:	1840ffe9 	blez	v0,9d005500 <__cvt_u+0x7c>
9d00555c:	00000000 	nop
9d005560:	13c0ffe7 	beqz	s8,9d005500 <__cvt_u+0x7c>
9d005564:	00000000 	nop
9d005568:	02202825 	move	a1,s1
9d00556c:	02603025 	move	a2,s3
9d005570:	02c03825 	move	a3,s6
9d005574:	afa80014 	sw	t0,20(sp)
9d005578:	0f400f4c 	jal	9d003d30 <__umoddi3>
9d00557c:	2652ffff 	addiu	s2,s2,-1
9d005580:	afa20010 	sw	v0,16(sp)
9d005584:	02921821 	addu	v1,s4,s2
9d005588:	24420030 	addiu	v0,v0,48
9d00558c:	02002025 	move	a0,s0
9d005590:	02202825 	move	a1,s1
9d005594:	a0620000 	sb	v0,0(v1)
9d005598:	02603025 	move	a2,s3
9d00559c:	0f40104a 	jal	9d004128 <__udivdi3>
9d0055a0:	02c03825 	move	a3,s6
9d0055a4:	00408025 	move	s0,v0
9d0055a8:	00608825 	move	s1,v1
9d0055ac:	26b50001 	addiu	s5,s5,1
9d0055b0:	8fa80014 	lw	t0,20(sp)
9d0055b4:	1000ffd0 	b	9d0054f8 <__cvt_u+0x74>
9d0055b8:	8fa90010 	lw	t1,16(sp)
9d0055bc:	7c022104 	ins	v0,zero,0x4,0x1
9d0055c0:	1000ffd1 	b	9d005508 <__cvt_u+0x84>
9d0055c4:	aee20000 	sw	v0,0(s7)

Disassembly of section .text.dpcmp:

9d0055c8 <__eqdf2>:
9d0055c8:	2409fffe 00055040 00075840 01645825     ...$@P..@X..%Xd.
9d0055d8:	01665825 014b5025 15400003 00000000     %Xf.%PK...@.....
9d0055e8:	1000003c 24020000                       <......$

9d0055f0 <i56>:
9d0055f0:	10800002 	beqz	a0,9d0055fc <i57>
9d0055f4:	00054040 	sll	t0,a1,0x1
9d0055f8:	25080001 	addiu	t0,t0,1

9d0055fc <i57>:
9d0055fc:	3c01ffe0 	lui	at,0xffe0
9d005600:	34210001 	ori	at,at,0x1
9d005604:	0101082b 	sltu	at,t0,at
9d005608:	10200037 	beqz	at,9d0056e8 <Lnan>
9d00560c:	00000000 	nop
9d005610:	10c00002 	beqz	a2,9d00561c <i58>
9d005614:	00074040 	sll	t0,a3,0x1
9d005618:	25080001 	addiu	t0,t0,1

9d00561c <i58>:
9d00561c:	3c01ffe0 	lui	at,0xffe0
9d005620:	34210001 	ori	at,at,0x1
9d005624:	0101082b 	sltu	at,t0,at
9d005628:	1020002f 	beqz	at,9d0056e8 <Lnan>
9d00562c:	00000000 	nop
9d005630:	04a10016 	bgez	a1,9d00568c <i59>
9d005634:	00000000 	nop
9d005638:	04e00003 	bltz	a3,9d005648 <i60>
9d00563c:	00000000 	nop
9d005640:	10000026 	b	9d0056dc <L999>
9d005644:	2402ffff 	li	v0,-1

9d005648 <i60>:
9d005648:	0086502b 	sltu	t2,a0,a2
9d00564c:	00862023 	subu	a0,a0,a2
9d005650:	00aa582b 	sltu	t3,a1,t2
9d005654:	00aa2823 	subu	a1,a1,t2
9d005658:	00a7502b 	sltu	t2,a1,a3
9d00565c:	014b5025 	or	t2,t2,t3
9d005660:	11400003 	beqz	t2,9d005670 <i61>
9d005664:	00a72823 	subu	a1,a1,a3
9d005668:	1000001c 	b	9d0056dc <L999>
9d00566c:	24020001 	li	v0,1

9d005670 <i61>:
9d005670:	00a45025 	or	t2,a1,a0
9d005674:	11400003 	beqz	t2,9d005684 <i62>
9d005678:	00000000 	nop
9d00567c:	10000017 	b	9d0056dc <L999>
9d005680:	2402ffff 	li	v0,-1

9d005684 <i62>:
9d005684:	10000015 	b	9d0056dc <L999>
9d005688:	24020000 	li	v0,0

9d00568c <i59>:
9d00568c:	04e10003 	bgez	a3,9d00569c <i63>
9d005690:	00000000 	nop
9d005694:	10000011 	b	9d0056dc <L999>
9d005698:	24020001 	li	v0,1

9d00569c <i63>:
9d00569c:	0086502b 	sltu	t2,a0,a2
9d0056a0:	00862023 	subu	a0,a0,a2
9d0056a4:	00aa582b 	sltu	t3,a1,t2
9d0056a8:	00aa2823 	subu	a1,a1,t2
9d0056ac:	00a7502b 	sltu	t2,a1,a3
9d0056b0:	014b5025 	or	t2,t2,t3
9d0056b4:	11400003 	beqz	t2,9d0056c4 <i64>
9d0056b8:	00a72823 	subu	a1,a1,a3
9d0056bc:	10000007 	b	9d0056dc <L999>
9d0056c0:	2402ffff 	li	v0,-1

9d0056c4 <i64>:
9d0056c4:	00a45025 	or	t2,a1,a0
9d0056c8:	11400003 	beqz	t2,9d0056d8 <i65>
9d0056cc:	00000000 	nop
9d0056d0:	10000002 	b	9d0056dc <L999>
9d0056d4:	24020001 	li	v0,1

9d0056d8 <i65>:
9d0056d8:	24020000 	li	v0,0

9d0056dc <L999>:
9d0056dc:	03e00008 	jr	ra
9d0056e0:	00000000 	nop
9d0056e4:	00000000 	nop

9d0056e8 <Lnan>:
9d0056e8:	1000fffc 	b	9d0056dc <L999>
9d0056ec:	00091025 	or	v0,zero,t1
9d0056f0:	00000000 	nop

Disassembly of section .text.dfcmplt:

9d0056f4 <dpcmplt>:
9d0056f4:	2409fffe 	li	t1,-2
9d0056f8:	00055040 	sll	t2,a1,0x1
9d0056fc:	00075840 	sll	t3,a3,0x1
9d005700:	01645825 	or	t3,t3,a0
9d005704:	01665825 	or	t3,t3,a2
9d005708:	014b5025 	or	t2,t2,t3
9d00570c:	15400003 	bnez	t2,9d00571c <dpcmplt+0x28>
9d005710:	00000000 	nop
9d005714:	1000003c 	b	9d005808 <dpcmplt+0x114>
9d005718:	24020000 	li	v0,0
9d00571c:	10800002 	beqz	a0,9d005728 <dpcmplt+0x34>
9d005720:	00054040 	sll	t0,a1,0x1
9d005724:	25080001 	addiu	t0,t0,1
9d005728:	3c01ffe0 	lui	at,0xffe0
9d00572c:	34210001 	ori	at,at,0x1
9d005730:	0101082b 	sltu	at,t0,at
9d005734:	10200037 	beqz	at,9d005814 <dpcmplt+0x120>
9d005738:	00000000 	nop
9d00573c:	10c00002 	beqz	a2,9d005748 <dpcmplt+0x54>
9d005740:	00074040 	sll	t0,a3,0x1
9d005744:	25080001 	addiu	t0,t0,1
9d005748:	3c01ffe0 	lui	at,0xffe0
9d00574c:	34210001 	ori	at,at,0x1
9d005750:	0101082b 	sltu	at,t0,at
9d005754:	1020002f 	beqz	at,9d005814 <dpcmplt+0x120>
9d005758:	00000000 	nop
9d00575c:	04a10016 	bgez	a1,9d0057b8 <dpcmplt+0xc4>
9d005760:	00000000 	nop
9d005764:	04e00003 	bltz	a3,9d005774 <dpcmplt+0x80>
9d005768:	00000000 	nop
9d00576c:	10000026 	b	9d005808 <dpcmplt+0x114>
9d005770:	2402ffff 	li	v0,-1
9d005774:	0086502b 	sltu	t2,a0,a2
9d005778:	00862023 	subu	a0,a0,a2
9d00577c:	00aa582b 	sltu	t3,a1,t2
9d005780:	00aa2823 	subu	a1,a1,t2
9d005784:	00a7502b 	sltu	t2,a1,a3
9d005788:	014b5025 	or	t2,t2,t3
9d00578c:	11400003 	beqz	t2,9d00579c <dpcmplt+0xa8>
9d005790:	00a72823 	subu	a1,a1,a3
9d005794:	1000001c 	b	9d005808 <dpcmplt+0x114>
9d005798:	24020001 	li	v0,1
9d00579c:	00a45025 	or	t2,a1,a0
9d0057a0:	11400003 	beqz	t2,9d0057b0 <dpcmplt+0xbc>
9d0057a4:	00000000 	nop
9d0057a8:	10000017 	b	9d005808 <dpcmplt+0x114>
9d0057ac:	2402ffff 	li	v0,-1
9d0057b0:	10000015 	b	9d005808 <dpcmplt+0x114>
9d0057b4:	24020000 	li	v0,0
9d0057b8:	04e10003 	bgez	a3,9d0057c8 <dpcmplt+0xd4>
9d0057bc:	00000000 	nop
9d0057c0:	10000011 	b	9d005808 <dpcmplt+0x114>
9d0057c4:	24020001 	li	v0,1
9d0057c8:	0086502b 	sltu	t2,a0,a2
9d0057cc:	00862023 	subu	a0,a0,a2
9d0057d0:	00aa582b 	sltu	t3,a1,t2
9d0057d4:	00aa2823 	subu	a1,a1,t2
9d0057d8:	00a7502b 	sltu	t2,a1,a3
9d0057dc:	014b5025 	or	t2,t2,t3
9d0057e0:	11400003 	beqz	t2,9d0057f0 <dpcmplt+0xfc>
9d0057e4:	00a72823 	subu	a1,a1,a3
9d0057e8:	10000007 	b	9d005808 <dpcmplt+0x114>
9d0057ec:	2402ffff 	li	v0,-1
9d0057f0:	00a45025 	or	t2,a1,a0
9d0057f4:	11400003 	beqz	t2,9d005804 <dpcmplt+0x110>
9d0057f8:	00000000 	nop
9d0057fc:	10000002 	b	9d005808 <dpcmplt+0x114>
9d005800:	24020001 	li	v0,1
9d005804:	24020000 	li	v0,0
9d005808:	03e00008 	jr	ra
9d00580c:	00000000 	nop
9d005810:	00000000 	nop
9d005814:	1000fffc 	b	9d005808 <dpcmplt+0x114>
9d005818:	34020001 	li	v0,0x1
9d00581c:	00000000 	nop

Disassembly of section .text:

9d005820 <dpfloor>:
9d005820:	3c018000 00a13024 00053840 00073d42     ...<$0..@8..B=..
9d005830:	240107ff 10e1002b 00000000 24090433     ...$+.......3..$
9d005840:	01273823 2ce10035 1420000b 00000000     #8'.5..,.. .....
9d005850:	04e00020 00000000 10c0002d 00000000      .......-.......
9d005860:	00054840 01244825 15200026 00000000     @H..%H$.&. .....
9d005870:	10000027 00000000                       '.......

9d005878 <i1>:
9d005878:	10c00005 	beqz	a2,9d005890 <i3>
9d00587c:	00000000 	nop
9d005880:	0004482b 	sltu	t1,zero,a0
9d005884:	00042023 	negu	a0,a0
9d005888:	00052823 	negu	a1,a1
9d00588c:	00a92823 	subu	a1,a1,t1

9d005890 <i3>:
9d005890:	30e9001f 	andi	t1,a3,0x1f
9d005894:	24080001 	li	t0,1
9d005898:	01284004 	sllv	t0,t0,t1
9d00589c:	00084023 	negu	t0,t0
9d0058a0:	2ce10020 	sltiu	at,a3,32
9d0058a4:	14200004 	bnez	at,9d0058b8 <i4>
9d0058a8:	00000000 	nop
9d0058ac:	24040000 	li	a0,0
9d0058b0:	10000002 	b	9d0058bc <e4>
9d0058b4:	00a82824 	and	a1,a1,t0

9d0058b8 <i4>:
9d0058b8:	00882024 	and	a0,a0,t0

9d0058bc <e4>:
9d0058bc:	10c00005 	beqz	a2,9d0058d4 <Aret>
9d0058c0:	00000000 	nop
9d0058c4:	0004482b 	sltu	t1,zero,a0
9d0058c8:	00042023 	negu	a0,a0
9d0058cc:	00052823 	negu	a1,a1
9d0058d0:	00a92823 	subu	a1,a1,t1

9d0058d4 <Aret>:
9d0058d4:	00041025 	or	v0,zero,a0
9d0058d8:	00051825 	or	v1,zero,a1

9d0058dc <A999>:
9d0058dc:	03e00008 	jr	ra
9d0058e0:	00000000 	nop

9d0058e4 <Aspec>:
9d0058e4:	3c01000f 	lui	at,0xf
9d0058e8:	3421ffff 	ori	at,at,0xffff
9d0058ec:	00a14824 	and	t1,a1,at
9d0058f0:	01244825 	or	t1,t1,a0
9d0058f4:	15200009 	bnez	t1,9d00591c <Anan>
9d0058f8:	00000000 	nop
9d0058fc:	1000fff5 	b	9d0058d4 <Aret>
9d005900:	00000000 	nop

9d005904 <Amin1>:
9d005904:	3c05bff0 	lui	a1,0xbff0
9d005908:	1000fff2 	b	9d0058d4 <Aret>
9d00590c:	24040000 	li	a0,0

9d005910 <Azer>:
9d005910:	00062825 	or	a1,zero,a2
9d005914:	1000ffef 	b	9d0058d4 <Aret>
9d005918:	24040000 	li	a0,0

9d00591c <Anan>:
9d00591c:	3c05fff8 	lui	a1,0xfff8
9d005920:	1000ffec 	b	9d0058d4 <Aret>
9d005924:	24040000 	li	a0,0

Disassembly of section .text.__pad:

9d005928 <__pad>:
9d005928:	27bdffc0 	addiu	sp,sp,-64
9d00592c:	afb40030 	sw	s4,48(sp)
9d005930:	8fb40050 	lw	s4,80(sp)
9d005934:	afb50034 	sw	s5,52(sp)
9d005938:	afb3002c 	sw	s3,44(sp)
9d00593c:	32940001 	andi	s4,s4,0x1
9d005940:	afb20028 	sw	s2,40(sp)
9d005944:	afb10024 	sw	s1,36(sp)
9d005948:	afb00020 	sw	s0,32(sp)
9d00594c:	afbf003c 	sw	ra,60(sp)
9d005950:	afb60038 	sw	s6,56(sp)
9d005954:	00809825 	move	s3,a0
9d005958:	00a0a825 	move	s5,a1
9d00595c:	00c08825 	move	s1,a2
9d005960:	00e09025 	move	s2,a3
9d005964:	16800024 	bnez	s4,9d0059f8 <__pad+0xd0>
9d005968:	00c7802a 	slt	s0,a2,a3
9d00596c:	12000023 	beqz	s0,9d0059fc <__pad+0xd4>
9d005970:	02203025 	move	a2,s1
9d005974:	02518023 	subu	s0,s2,s1
9d005978:	2e060011 	sltiu	a2,s0,17
9d00597c:	24020010 	li	v0,16
9d005980:	0206100b 	movn	v0,s0,a2
9d005984:	00403025 	move	a2,v0
9d005988:	24050020 	li	a1,32
9d00598c:	27a40010 	addiu	a0,sp,16
9d005990:	0f401a2c 	jal	9d0068b0 <memset>
9d005994:	0200b025 	move	s6,s0
9d005998:	2a020010 	slti	v0,s0,16
9d00599c:	1040001e 	beqz	v0,9d005a18 <__pad+0xf0>
9d0059a0:	24060010 	li	a2,16
9d0059a4:	32c6000f 	andi	a2,s6,0xf
9d0059a8:	27a50010 	addiu	a1,sp,16
9d0059ac:	0f401927 	jal	9d00649c <__out>
9d0059b0:	02602025 	move	a0,s3
9d0059b4:	16800006 	bnez	s4,9d0059d0 <__pad+0xa8>
9d0059b8:	8fbf003c 	lw	ra,60(sp)
9d0059bc:	02203025 	move	a2,s1
9d0059c0:	02a02825 	move	a1,s5
9d0059c4:	0f401927 	jal	9d00649c <__out>
9d0059c8:	02602025 	move	a0,s3
9d0059cc:	8fbf003c 	lw	ra,60(sp)
9d0059d0:	02401025 	move	v0,s2
9d0059d4:	8fb60038 	lw	s6,56(sp)
9d0059d8:	8fb50034 	lw	s5,52(sp)
9d0059dc:	8fb40030 	lw	s4,48(sp)
9d0059e0:	8fb3002c 	lw	s3,44(sp)
9d0059e4:	8fb20028 	lw	s2,40(sp)
9d0059e8:	8fb10024 	lw	s1,36(sp)
9d0059ec:	8fb00020 	lw	s0,32(sp)
9d0059f0:	03e00008 	jr	ra
9d0059f4:	27bd0040 	addiu	sp,sp,64
9d0059f8:	02203025 	move	a2,s1
9d0059fc:	02a02825 	move	a1,s5
9d005a00:	0f401927 	jal	9d00649c <__out>
9d005a04:	02602025 	move	a0,s3
9d005a08:	1600ffdb 	bnez	s0,9d005978 <__pad+0x50>
9d005a0c:	02518023 	subu	s0,s2,s1
9d005a10:	1000ffee 	b	9d0059cc <__pad+0xa4>
9d005a14:	02209025 	move	s2,s1
9d005a18:	27a50010 	addiu	a1,sp,16
9d005a1c:	0f401927 	jal	9d00649c <__out>
9d005a20:	02602025 	move	a0,s3
9d005a24:	1000ffdc 	b	9d005998 <__pad+0x70>
9d005a28:	2610fff0 	addiu	s0,s0,-16

Disassembly of section .text.dptofp:

9d005a2c <__truncdfsf2>:
9d005a2c:	00053ac0 00045d42 00eb3825 000432c0     .:..B]..%8...2..
9d005a3c:	3c018000 00e13825 3c018000 00a14824     ...<%8.....<$H..
9d005a4c:	00054040 00084542 2508fc80 250bffff     @@..BE.....%...%
9d005a5c:	2d6100fe 10200012 00000000              ..a-.. .....

9d005a68 <Hlab1>:
9d005a68:	10c00002 	beqz	a2,9d005a74 <i45>
9d005a6c:	00000000 	nop
9d005a70:	34e70001 	ori	a3,a3,0x1

9d005a74 <i45>:
9d005a74:	24e70080 	addiu	a3,a3,128
9d005a78:	2ceb0080 	sltiu	t3,a3,128
9d005a7c:	010b4021 	addu	t0,t0,t3
9d005a80:	00075a02 	srl	t3,a3,0x8
9d005a84:	316b0001 	andi	t3,t3,0x1
9d005a88:	00eb3823 	subu	a3,a3,t3
9d005a8c:	00073840 	sll	a3,a3,0x1
9d005a90:	00073a42 	srl	a3,a3,0x9
9d005a94:	00085dc0 	sll	t3,t0,0x17
9d005a98:	00eb3825 	or	a3,a3,t3
9d005a9c:	00e91025 	or	v0,a3,t1

9d005aa0 <H999>:
9d005aa0:	03e00008 	jr	ra
9d005aa4:	00000000 	nop
9d005aa8:	00000000 	nop

9d005aac <Hspec>:
9d005aac:	2401047f 	li	at,1151
9d005ab0:	15010007 	bne	t0,at,9d005ad0 <i46>
9d005ab4:	00000000 	nop
9d005ab8:	00075840 	sll	t3,a3,0x1
9d005abc:	01665825 	or	t3,t3,a2
9d005ac0:	11600003 	beqz	t3,9d005ad0 <i46>
9d005ac4:	00000000 	nop
9d005ac8:	1000fff5 	b	9d005aa0 <H999>
9d005acc:	3c02ffc0 	lui	v0,0xffc0

9d005ad0 <i46>:
9d005ad0:	290100ff 	slti	at,t0,255
9d005ad4:	14200004 	bnez	at,9d005ae8 <i48>
9d005ad8:	00000000 	nop
9d005adc:	3c017f80 	lui	at,0x7f80
9d005ae0:	1000ffef 	b	9d005aa0 <H999>
9d005ae4:	01211025 	or	v0,t1,at

9d005ae8 <i48>:
9d005ae8:	240a0001 	li	t2,1
9d005aec:	01485023 	subu	t2,t2,t0
9d005af0:	2d410020 	sltiu	at,t2,32
9d005af4:	14200003 	bnez	at,9d005b04 <i49>
9d005af8:	00000000 	nop
9d005afc:	1000ffe8 	b	9d005aa0 <H999>
9d005b00:	00091025 	or	v0,zero,t1

9d005b04 <i49>:
9d005b04:	240c0020 	li	t4,32
9d005b08:	018a6023 	subu	t4,t4,t2
9d005b0c:	01875804 	sllv	t3,a3,t4
9d005b10:	00cb3025 	or	a2,a2,t3
9d005b14:	01473806 	srlv	a3,a3,t2
9d005b18:	24080000 	li	t0,0
9d005b1c:	3c018000 	lui	at,0x8000
9d005b20:	1000ffd1 	b	9d005a68 <Hlab1>
9d005b24:	00e13825 	or	a3,a3,at
9d005b28:	00000000 	nop

Disassembly of section .text.__fmt_o:

9d005b2c <__fmt_o>:
9d005b2c:	8ca20000 	lw	v0,0(a1)
9d005b30:	8ca30004 	lw	v1,4(a1)
9d005b34:	27bdffc0 	addiu	sp,sp,-64
9d005b38:	afb30038 	sw	s3,56(sp)
9d005b3c:	afb20034 	sw	s2,52(sp)
9d005b40:	afb10030 	sw	s1,48(sp)
9d005b44:	afb0002c 	sw	s0,44(sp)
9d005b48:	afbf003c 	sw	ra,60(sp)
9d005b4c:	00809025 	move	s2,a0
9d005b50:	00a08025 	move	s0,a1
9d005b54:	8cb30008 	lw	s3,8(a1)
9d005b58:	afa20020 	sw	v0,32(sp)
9d005b5c:	04600003 	bltz	v1,9d005b6c <__fmt_o+0x40>
9d005b60:	8cb1000c 	lw	s1,12(a1)
9d005b64:	7c020844 	ins	v0,zero,0x1,0x1
9d005b68:	afa20020 	sw	v0,32(sp)
9d005b6c:	27a20020 	addiu	v0,sp,32
9d005b70:	afa20018 	sw	v0,24(sp)
9d005b74:	24020008 	li	v0,8
9d005b78:	afa20014 	sw	v0,20(sp)
9d005b7c:	afb30010 	sw	s3,16(sp)
9d005b80:	8cc70004 	lw	a3,4(a2)
9d005b84:	8cc60000 	lw	a2,0(a2)
9d005b88:	0f401521 	jal	9d005484 <__cvt_u>
9d005b8c:	02002025 	move	a0,s0
9d005b90:	8fa30020 	lw	v1,32(sp)
9d005b94:	30630010 	andi	v1,v1,0x10
9d005b98:	10600006 	beqz	v1,9d005bb4 <__fmt_o+0x88>
9d005b9c:	8fa30020 	lw	v1,32(sp)
9d005ba0:	2442ffff 	addiu	v0,v0,-1
9d005ba4:	02221821 	addu	v1,s1,v0
9d005ba8:	24040030 	li	a0,48
9d005bac:	a0640000 	sb	a0,0(v1)
9d005bb0:	8fa30020 	lw	v1,32(sp)
9d005bb4:	30630008 	andi	v1,v1,0x8
9d005bb8:	50600006 	beqzl	v1,9d005bd4 <__fmt_o+0xa8>
9d005bbc:	8e060010 	lw	a2,16(s0)
9d005bc0:	2442ffff 	addiu	v0,v0,-1
9d005bc4:	02221821 	addu	v1,s1,v0
9d005bc8:	24040020 	li	a0,32
9d005bcc:	a0640000 	sb	a0,0(v1)
9d005bd0:	8e060010 	lw	a2,16(s0)
9d005bd4:	8fa30020 	lw	v1,32(sp)
9d005bd8:	02603825 	move	a3,s3
9d005bdc:	24c6ffff 	addiu	a2,a2,-1
9d005be0:	afa30010 	sw	v1,16(sp)
9d005be4:	00c23023 	subu	a2,a2,v0
9d005be8:	02222821 	addu	a1,s1,v0
9d005bec:	0f40164a 	jal	9d005928 <__pad>
9d005bf0:	02402025 	move	a0,s2
9d005bf4:	8e430004 	lw	v1,4(s2)
9d005bf8:	30630100 	andi	v1,v1,0x100
9d005bfc:	10600004 	beqz	v1,9d005c10 <__fmt_o+0xe4>
9d005c00:	8fbf003c 	lw	ra,60(sp)
9d005c04:	8e030004 	lw	v1,4(s0)
9d005c08:	0043202a 	slt	a0,v0,v1
9d005c0c:	0064100b 	movn	v0,v1,a0
9d005c10:	8fb30038 	lw	s3,56(sp)
9d005c14:	8fb20034 	lw	s2,52(sp)
9d005c18:	8fb10030 	lw	s1,48(sp)
9d005c1c:	8fb0002c 	lw	s0,44(sp)
9d005c20:	03e00008 	jr	ra
9d005c24:	27bd0040 	addiu	sp,sp,64

Disassembly of section .text.scalbn:

9d005c28 <scalbn>:
9d005c28:	27bdffe0 	addiu	sp,sp,-32
9d005c2c:	afb10014 	sw	s1,20(sp)
9d005c30:	00c08825 	move	s1,a2
9d005c34:	28c60400 	slti	a2,a2,1024
9d005c38:	afbf001c 	sw	ra,28(sp)
9d005c3c:	afb20018 	sw	s2,24(sp)
9d005c40:	14c00020 	bnez	a2,9d005cc4 <scalbn+0x9c>
9d005c44:	afb00010 	sw	s0,16(sp)
9d005c48:	3c129d00 	lui	s2,0x9d00
9d005c4c:	8e461ea8 	lw	a2,7848(s2)
9d005c50:	8e471eac 	lw	a3,7852(s2)
9d005c54:	0f40122e 	jal	9d0048b8 <__muldf3>
9d005c58:	2630fc01 	addiu	s0,s1,-1023
9d005c5c:	2a040400 	slti	a0,s0,1024
9d005c60:	5480000b 	bnezl	a0,9d005c90 <scalbn+0x68>
9d005c64:	261003ff 	addiu	s0,s0,1023
9d005c68:	8e461ea8 	lw	a2,7848(s2)
9d005c6c:	8e471eac 	lw	a3,7852(s2)
9d005c70:	00402025 	move	a0,v0
9d005c74:	00602825 	move	a1,v1
9d005c78:	0f40122e 	jal	9d0048b8 <__muldf3>
9d005c7c:	2630f802 	addiu	s0,s1,-2046
9d005c80:	2a050400 	slti	a1,s0,1024
9d005c84:	240403ff 	li	a0,1023
9d005c88:	0085800a 	movz	s0,a0,a1
9d005c8c:	261003ff 	addiu	s0,s0,1023
9d005c90:	00102500 	sll	a0,s0,0x14
9d005c94:	00002825 	move	a1,zero
9d005c98:	00a03025 	move	a2,a1
9d005c9c:	00803825 	move	a3,a0
9d005ca0:	00602825 	move	a1,v1
9d005ca4:	0f40122e 	jal	9d0048b8 <__muldf3>
9d005ca8:	00402025 	move	a0,v0
9d005cac:	8fbf001c 	lw	ra,28(sp)
9d005cb0:	8fb20018 	lw	s2,24(sp)
9d005cb4:	8fb10014 	lw	s1,20(sp)
9d005cb8:	8fb00010 	lw	s0,16(sp)
9d005cbc:	03e00008 	jr	ra
9d005cc0:	27bd0020 	addiu	sp,sp,32
9d005cc4:	2a26fc02 	slti	a2,s1,-1022
9d005cc8:	00801025 	move	v0,a0
9d005ccc:	00a01825 	move	v1,a1
9d005cd0:	10c0ffee 	beqz	a2,9d005c8c <scalbn+0x64>
9d005cd4:	02208025 	move	s0,s1
9d005cd8:	3c129d00 	lui	s2,0x9d00
9d005cdc:	8e461eb0 	lw	a2,7856(s2)
9d005ce0:	8e471eb4 	lw	a3,7860(s2)
9d005ce4:	0f40122e 	jal	9d0048b8 <__muldf3>
9d005ce8:	263003c9 	addiu	s0,s1,969
9d005cec:	2a04fc02 	slti	a0,s0,-1022
9d005cf0:	5080ffe7 	beqzl	a0,9d005c90 <scalbn+0x68>
9d005cf4:	261003ff 	addiu	s0,s0,1023
9d005cf8:	8e461eb0 	lw	a2,7856(s2)
9d005cfc:	8e471eb4 	lw	a3,7860(s2)
9d005d00:	00402025 	move	a0,v0
9d005d04:	00602825 	move	a1,v1
9d005d08:	0f40122e 	jal	9d0048b8 <__muldf3>
9d005d0c:	26300792 	addiu	s0,s1,1938
9d005d10:	2a05fc02 	slti	a1,s0,-1022
9d005d14:	2404fc02 	li	a0,-1022
9d005d18:	1000ffdc 	b	9d005c8c <scalbn+0x64>
9d005d1c:	0085800b 	movn	s0,a0,a1

Disassembly of section .text.__pop_ptr:

9d005d20 <__pop_ptr>:
9d005d20:	24020084 	li	v0,132
9d005d24:	50a20022 	beql	a1,v0,9d005db0 <__pop_ptr+0x90>
9d005d28:	8ce20000 	lw	v0,0(a3)
9d005d2c:	28a20085 	slti	v0,a1,133
9d005d30:	10400011 	beqz	v0,9d005d78 <__pop_ptr+0x58>
9d005d34:	24020090 	li	v0,144
9d005d38:	24020081 	li	v0,129
9d005d3c:	50a20008 	beql	a1,v0,9d005d60 <__pop_ptr+0x40>
9d005d40:	8ce20000 	lw	v0,0(a3)
9d005d44:	24020082 	li	v0,130
9d005d48:	50a20026 	beql	a1,v0,9d005de4 <__pop_ptr+0xc4>
9d005d4c:	8ce20000 	lw	v0,0(a3)
9d005d50:	24020080 	li	v0,128
9d005d54:	14a20010 	bne	a1,v0,9d005d98 <__pop_ptr+0x78>
9d005d58:	00000000 	nop
9d005d5c:	8ce20000 	lw	v0,0(a3)
9d005d60:	24430004 	addiu	v1,v0,4
9d005d64:	ace30000 	sw	v1,0(a3)
9d005d68:	8c420000 	lw	v0,0(v0)
9d005d6c:	ac820000 	sw	v0,0(a0)
9d005d70:	10000014 	b	9d005dc4 <__pop_ptr+0xa4>
9d005d74:	ac460000 	sw	a2,0(v0)
9d005d78:	50a2001a 	beql	a1,v0,9d005de4 <__pop_ptr+0xc4>
9d005d7c:	8ce20000 	lw	v0,0(a3)
9d005d80:	28a20091 	slti	v0,a1,145
9d005d84:	10400006 	beqz	v0,9d005da0 <__pop_ptr+0x80>
9d005d88:	240200a0 	li	v0,160
9d005d8c:	24020088 	li	v0,136
9d005d90:	50a2000e 	beql	a1,v0,9d005dcc <__pop_ptr+0xac>
9d005d94:	8ce20000 	lw	v0,0(a3)
9d005d98:	03e00008 	jr	ra
9d005d9c:	00001025 	move	v0,zero
9d005da0:	50a2ffef 	beql	a1,v0,9d005d60 <__pop_ptr+0x40>
9d005da4:	8ce20000 	lw	v0,0(a3)
9d005da8:	1000ffea 	b	9d005d54 <__pop_ptr+0x34>
9d005dac:	240200c0 	li	v0,192
9d005db0:	24430004 	addiu	v1,v0,4
9d005db4:	ace30000 	sw	v1,0(a3)
9d005db8:	8c420000 	lw	v0,0(v0)
9d005dbc:	ac820000 	sw	v0,0(a0)
9d005dc0:	a4460000 	sh	a2,0(v0)
9d005dc4:	03e00008 	jr	ra
9d005dc8:	24020001 	li	v0,1
9d005dcc:	24430004 	addiu	v1,v0,4
9d005dd0:	ace30000 	sw	v1,0(a3)
9d005dd4:	8c420000 	lw	v0,0(v0)
9d005dd8:	ac820000 	sw	v0,0(a0)
9d005ddc:	1000fff9 	b	9d005dc4 <__pop_ptr+0xa4>
9d005de0:	a0460000 	sb	a2,0(v0)
9d005de4:	24430004 	addiu	v1,v0,4
9d005de8:	ace30000 	sw	v1,0(a3)
9d005dec:	8c420000 	lw	v0,0(v0)
9d005df0:	ac820000 	sw	v0,0(a0)
9d005df4:	ac460000 	sw	a2,0(v0)
9d005df8:	000637c3 	sra	a2,a2,0x1f
9d005dfc:	1000fff1 	b	9d005dc4 <__pop_ptr+0xa4>
9d005e00:	ac460004 	sw	a2,4(v0)

Disassembly of section .text.general_exception:

9d005e04 <_general_exception_context>:
9d005e04:	27bdffa8 	addiu	sp,sp,-88
9d005e08:	afa10004 	sw	at,4(sp)
9d005e0c:	afa20008 	sw	v0,8(sp)
9d005e10:	afa3000c 	sw	v1,12(sp)
9d005e14:	afa40010 	sw	a0,16(sp)
9d005e18:	afa50014 	sw	a1,20(sp)
9d005e1c:	afa60018 	sw	a2,24(sp)
9d005e20:	afa7001c 	sw	a3,28(sp)
9d005e24:	afa80020 	sw	t0,32(sp)
9d005e28:	afa90024 	sw	t1,36(sp)
9d005e2c:	afaa0028 	sw	t2,40(sp)
9d005e30:	afab002c 	sw	t3,44(sp)
9d005e34:	afac0030 	sw	t4,48(sp)
9d005e38:	afad0034 	sw	t5,52(sp)
9d005e3c:	afae0038 	sw	t6,56(sp)
9d005e40:	afaf003c 	sw	t7,60(sp)
9d005e44:	afb80040 	sw	t8,64(sp)
9d005e48:	afb90044 	sw	t9,68(sp)
9d005e4c:	afbf0048 	sw	ra,72(sp)
9d005e50:	00004012 	mflo	t0
9d005e54:	afa8004c 	sw	t0,76(sp)
9d005e58:	00004010 	mfhi	t0
9d005e5c:	afa80050 	sw	t0,80(sp)
9d005e60:	3c1a9d00 	lui	k0,0x9d00
9d005e64:	275a6640 	addiu	k0,k0,26176
9d005e68:	00000000 	nop
9d005e6c:	40046800 	mfc0	a0,c0_cause
9d005e70:	40056000 	mfc0	a1,c0_status
9d005e74:	0340f809 	jalr	k0
9d005e78:	00000000 	nop
9d005e7c:	8fa80050 	lw	t0,80(sp)
9d005e80:	01000011 	mthi	t0
9d005e84:	8fa8004c 	lw	t0,76(sp)
9d005e88:	01000013 	mtlo	t0
9d005e8c:	8fa10004 	lw	at,4(sp)
9d005e90:	8fa20008 	lw	v0,8(sp)
9d005e94:	8fa3000c 	lw	v1,12(sp)
9d005e98:	8fa40010 	lw	a0,16(sp)
9d005e9c:	8fa50014 	lw	a1,20(sp)
9d005ea0:	8fa60018 	lw	a2,24(sp)
9d005ea4:	8fa7001c 	lw	a3,28(sp)
9d005ea8:	8fa80020 	lw	t0,32(sp)
9d005eac:	8fa90024 	lw	t1,36(sp)
9d005eb0:	8faa0028 	lw	t2,40(sp)
9d005eb4:	8fab002c 	lw	t3,44(sp)
9d005eb8:	8fac0030 	lw	t4,48(sp)
9d005ebc:	8fad0034 	lw	t5,52(sp)
9d005ec0:	8fae0038 	lw	t6,56(sp)
9d005ec4:	8faf003c 	lw	t7,60(sp)
9d005ec8:	8fb80040 	lw	t8,64(sp)
9d005ecc:	8fb90044 	lw	t9,68(sp)
9d005ed0:	8fbf0048 	lw	ra,72(sp)
9d005ed4:	27bd0058 	addiu	sp,sp,88
9d005ed8:	000000c0 	ehb
9d005edc:	42000018 	eret

Disassembly of section .text.__fmt_u:

9d005ee0 <__fmt_u>:
9d005ee0:	8ca20000 	lw	v0,0(a1)
9d005ee4:	8ca30004 	lw	v1,4(a1)
9d005ee8:	27bdffc0 	addiu	sp,sp,-64
9d005eec:	afb30038 	sw	s3,56(sp)
9d005ef0:	afb20034 	sw	s2,52(sp)
9d005ef4:	afb10030 	sw	s1,48(sp)
9d005ef8:	afb0002c 	sw	s0,44(sp)
9d005efc:	afbf003c 	sw	ra,60(sp)
9d005f00:	00808825 	move	s1,a0
9d005f04:	00a08025 	move	s0,a1
9d005f08:	8cb20008 	lw	s2,8(a1)
9d005f0c:	afa20020 	sw	v0,32(sp)
9d005f10:	04600003 	bltz	v1,9d005f20 <__fmt_u+0x40>
9d005f14:	8cb3000c 	lw	s3,12(a1)
9d005f18:	7c020844 	ins	v0,zero,0x1,0x1
9d005f1c:	afa20020 	sw	v0,32(sp)
9d005f20:	27a20020 	addiu	v0,sp,32
9d005f24:	afa20018 	sw	v0,24(sp)
9d005f28:	2402000a 	li	v0,10
9d005f2c:	afa20014 	sw	v0,20(sp)
9d005f30:	afb20010 	sw	s2,16(sp)
9d005f34:	8cc70004 	lw	a3,4(a2)
9d005f38:	8cc60000 	lw	a2,0(a2)
9d005f3c:	0f401521 	jal	9d005484 <__cvt_u>
9d005f40:	02002025 	move	a0,s0
9d005f44:	8e060010 	lw	a2,16(s0)
9d005f48:	8fa30020 	lw	v1,32(sp)
9d005f4c:	02403825 	move	a3,s2
9d005f50:	24c6ffff 	addiu	a2,a2,-1
9d005f54:	afa30010 	sw	v1,16(sp)
9d005f58:	00c23023 	subu	a2,a2,v0
9d005f5c:	02622821 	addu	a1,s3,v0
9d005f60:	0f40164a 	jal	9d005928 <__pad>
9d005f64:	02202025 	move	a0,s1
9d005f68:	8e230004 	lw	v1,4(s1)
9d005f6c:	30630100 	andi	v1,v1,0x100
9d005f70:	10600004 	beqz	v1,9d005f84 <__fmt_u+0xa4>
9d005f74:	8fbf003c 	lw	ra,60(sp)
9d005f78:	8e030004 	lw	v1,4(s0)
9d005f7c:	0043202a 	slt	a0,v0,v1
9d005f80:	0064100b 	movn	v0,v1,a0
9d005f84:	8fb30038 	lw	s3,56(sp)
9d005f88:	8fb20034 	lw	s2,52(sp)
9d005f8c:	8fb10030 	lw	s1,48(sp)
9d005f90:	8fb0002c 	lw	s0,44(sp)
9d005f94:	03e00008 	jr	ra
9d005f98:	27bd0040 	addiu	sp,sp,64

Disassembly of section .text.fptodp:

9d005f9c <__extendsfdf2>:
9d005f9c:	00043dc2 30e700ff 3c018000 00813024     .=.....0...<$0..
9d005fac:	24e9ffff 2d2100fe 1020000d 00000000     ...$..!-.. .....

9d005fbc <Glab1>:
9d005fbc:	24e70380 	addiu	a3,a3,896
9d005fc0:	00044a40 	sll	t1,a0,0x9
9d005fc4:	00094b02 	srl	t1,t1,0xc
9d005fc8:	00c93025 	or	a2,a2,t1
9d005fcc:	00042f40 	sll	a1,a0,0x1d

9d005fd0 <Gret>:
9d005fd0:	00074d00 	sll	t1,a3,0x14
9d005fd4:	00c93025 	or	a2,a2,t1
9d005fd8:	00051025 	or	v0,zero,a1
9d005fdc:	00061825 	or	v1,zero,a2

9d005fe0 <G999>:
9d005fe0:	03e00008 	jr	ra
9d005fe4:	00000000 	nop
9d005fe8:	00000000 	nop

9d005fec <Gspec>:
9d005fec:	24050000 	li	a1,0
9d005ff0:	00842021 	addu	a0,a0,a0
9d005ff4:	1080fff6 	beqz	a0,9d005fd0 <Gret>
9d005ff8:	00000000 	nop
9d005ffc:	14e00009 	bnez	a3,9d006024 <i42>
9d006000:	00000000 	nop

9d006004 <b43>:
9d006004:	24e7ffff 	addiu	a3,a3,-1
9d006008:	00842021 	addu	a0,a0,a0
9d00600c:	3c010080 	lui	at,0x80
9d006010:	0081082b 	sltu	at,a0,at
9d006014:	1420fffb 	bnez	at,9d006004 <b43>
9d006018:	00000000 	nop
9d00601c:	1000ffe7 	b	9d005fbc <Glab1>
9d006020:	00000000 	nop

9d006024 <i42>:
9d006024:	240707ff 	li	a3,2047
9d006028:	3c01ff00 	lui	at,0xff00
9d00602c:	34210001 	ori	at,at,0x1
9d006030:	0081082b 	sltu	at,a0,at
9d006034:	1420ffe6 	bnez	at,9d005fd0 <Gret>
9d006038:	00000000 	nop
9d00603c:	1000ffe4 	b	9d005fd0 <Gret>
9d006040:	3c06fff8 	lui	a2,0xfff8
9d006044:	00000000 	nop

Disassembly of section .text.__fmt_s:

9d006048 <__fmt_s>:
9d006048:	3c036c75 	lui	v1,0x6c75
9d00604c:	27bdffc8 	addiu	sp,sp,-56
9d006050:	24636e28 	addiu	v1,v1,28200
9d006054:	afa30018 	sw	v1,24(sp)
9d006058:	2403296c 	li	v1,10604
9d00605c:	afb40030 	sw	s4,48(sp)
9d006060:	afb3002c 	sw	s3,44(sp)
9d006064:	afb20028 	sw	s2,40(sp)
9d006068:	afb10024 	sw	s1,36(sp)
9d00606c:	afb00020 	sw	s0,32(sp)
9d006070:	afbf0034 	sw	ra,52(sp)
9d006074:	00809025 	move	s2,a0
9d006078:	00e01025 	move	v0,a3
9d00607c:	a7a3001c 	sh	v1,28(sp)
9d006080:	a3a0001e 	sb	zero,30(sp)
9d006084:	8cb10004 	lw	s1,4(a1)
9d006088:	8cb30008 	lw	s3,8(a1)
9d00608c:	8cb40000 	lw	s4,0(a1)
9d006090:	10c00002 	beqz	a2,9d00609c <__fmt_s+0x54>
9d006094:	27b00018 	addiu	s0,sp,24
9d006098:	00c08025 	move	s0,a2
9d00609c:	14400003 	bnez	v0,9d0060ac <__fmt_s+0x64>
9d0060a0:	00000000 	nop
9d0060a4:	0f401a74 	jal	9d0069d0 <strlen>
9d0060a8:	02002025 	move	a0,s0
9d0060ac:	06200002 	bltz	s1,9d0060b8 <__fmt_s+0x70>
9d0060b0:	0222182b 	sltu	v1,s1,v0
9d0060b4:	0223100b 	movn	v0,s1,v1
9d0060b8:	afb40010 	sw	s4,16(sp)
9d0060bc:	02603825 	move	a3,s3
9d0060c0:	02002825 	move	a1,s0
9d0060c4:	02402025 	move	a0,s2
9d0060c8:	0f40164a 	jal	9d005928 <__pad>
9d0060cc:	00403025 	move	a2,v0
9d0060d0:	8fbf0034 	lw	ra,52(sp)
9d0060d4:	8fb40030 	lw	s4,48(sp)
9d0060d8:	8fb3002c 	lw	s3,44(sp)
9d0060dc:	8fb20028 	lw	s2,40(sp)
9d0060e0:	8fb10024 	lw	s1,36(sp)
9d0060e4:	8fb00020 	lw	s0,32(sp)
9d0060e8:	03e00008 	jr	ra
9d0060ec:	27bd0038 	addiu	sp,sp,56

Disassembly of section .text.normalize:

9d0060f0 <normalize>:
9d0060f0:	27bdffe0 	addiu	sp,sp,-32
9d0060f4:	afb00014 	sw	s0,20(sp)
9d0060f8:	00808025 	move	s0,a0
9d0060fc:	00072502 	srl	a0,a3,0x14
9d006100:	afb10018 	sw	s1,24(sp)
9d006104:	30910800 	andi	s1,a0,0x800
9d006108:	308407ff 	andi	a0,a0,0x7ff
9d00610c:	afbf001c 	sw	ra,28(sp)
9d006110:	00c01025 	move	v0,a2
9d006114:	1480000e 	bnez	a0,9d006150 <normalize+0x60>
9d006118:	00e02825 	move	a1,a3
9d00611c:	3c029d00 	lui	v0,0x9d00
9d006120:	00c04025 	move	t0,a2
9d006124:	00e01825 	move	v1,a3
9d006128:	8c461e88 	lw	a2,7816(v0)
9d00612c:	8c471e8c 	lw	a3,7820(v0)
9d006130:	01002025 	move	a0,t0
9d006134:	0f40122e 	jal	9d0048b8 <__muldf3>
9d006138:	00602825 	move	a1,v1
9d00613c:	00602825 	move	a1,v1
9d006140:	7c635500 	ext	v1,v1,0x14,0xb
9d006144:	10600002 	beqz	v1,9d006150 <normalize+0x60>
9d006148:	24040800 	li	a0,2048
9d00614c:	2464ffc1 	addiu	a0,v1,-63
9d006150:	000237c2 	srl	a2,v0,0x1f
9d006154:	00051840 	sll	v1,a1,0x1
9d006158:	00021040 	sll	v0,v0,0x1
9d00615c:	00c31825 	or	v1,a2,v1
9d006160:	8fbf001c 	lw	ra,28(sp)
9d006164:	ae020000 	sw	v0,0(s0)
9d006168:	7c63a000 	ext	v1,v1,0x0,0x15
9d00616c:	3c020020 	lui	v0,0x20
9d006170:	00431825 	or	v1,v0,v1
9d006174:	2484fbcc 	addiu	a0,a0,-1076
9d006178:	ae11000c 	sw	s1,12(s0)
9d00617c:	02001025 	move	v0,s0
9d006180:	ae030004 	sw	v1,4(s0)
9d006184:	ae040008 	sw	a0,8(s0)
9d006188:	8fb10018 	lw	s1,24(sp)
9d00618c:	8fb00014 	lw	s0,20(sp)
9d006190:	03e00008 	jr	ra
9d006194:	27bd0020 	addiu	sp,sp,32

Disassembly of section .text.dptoli:

9d006198 <__fixdfsi>:
9d006198:	00053ac0 00045542 00ea3825 3c018000     .:..BU..%8.....<
9d0061a8:	00e13825 00055040 000a5542 2406041e     %8..@P..BU.....$
9d0061b8:	00ca3023 18c0000c 00000000 2cc10020     #0.......... ..,
9d0061c8:	14200002 00000000 34070000              .. ........4

9d0061d4 <L42>:
9d0061d4:	04a10002 	bgez	a1,9d0061e0 <i50>
9d0061d8:	00c73806 	srlv	a3,a3,a2
9d0061dc:	00073823 	negu	a3,a3

9d0061e0 <i50>:
9d0061e0:	00071025 	or	v0,zero,a3

9d0061e4 <I999>:
9d0061e4:	03e00008 	jr	ra
9d0061e8:	00000000 	nop
9d0061ec:	00000000 	nop

9d0061f0 <Inaninf>:
9d0061f0:	10800002 	beqz	a0,9d0061fc <i51>
9d0061f4:	00000000 	nop
9d0061f8:	34a50001 	ori	a1,a1,0x1

9d0061fc <i51>:
9d0061fc:	3c017ff0 	lui	at,0x7ff0
9d006200:	34210001 	ori	at,at,0x1
9d006204:	00a1082b 	sltu	at,a1,at
9d006208:	14200003 	bnez	at,9d006218 <i52>
9d00620c:	00000000 	nop
9d006210:	1000fff4 	b	9d0061e4 <I999>
9d006214:	3c028000 	lui	v0,0x8000

9d006218 <i52>:
9d006218:	3c027fff 	lui	v0,0x7fff
9d00621c:	1000fff1 	b	9d0061e4 <I999>
9d006220:	3442ffff 	ori	v0,v0,0xffff
9d006224:	00000000 	nop

Disassembly of section .text:

9d006228 <__pic32_data_init>:
9d006228:	03e01825 	move	v1,ra

9d00622c <_dinit_init>:
9d00622c:	3c089d00 	lui	t0,0x9d00
9d006230:	250868f4 	addiu	t0,t0,26868
9d006234:	1100001b 	beqz	t0,9d0062a4 <_dinit_end+0x18>
9d006238:	00000000 	nop
9d00623c:	8d090000 	lw	t1,0(t0)
9d006240:	11200018 	beqz	t1,9d0062a4 <_dinit_end+0x18>
9d006244:	25080004 	addiu	t0,t0,4
9d006248:	8d0a0000 	lw	t2,0(t0)
9d00624c:	25080004 	addiu	t0,t0,4
9d006250:	8d0b0000 	lw	t3,0(t0)
9d006254:	11600009 	beqz	t3,9d00627c <_dinit_clear>
9d006258:	25080004 	addiu	t0,t0,4

9d00625c <_dinit_copy>:
9d00625c:	910c0000 	lbu	t4,0(t0)
9d006260:	254affff 	addiu	t2,t2,-1
9d006264:	25080001 	addiu	t0,t0,1
9d006268:	a12c0000 	sb	t4,0(t1)
9d00626c:	1540fffb 	bnez	t2,9d00625c <_dinit_copy>
9d006270:	25290001 	addiu	t1,t1,1
9d006274:	10000005 	b	9d00628c <_dinit_end>
9d006278:	00000000 	nop

9d00627c <_dinit_clear>:
9d00627c:	a1200000 	sb	zero,0(t1)
9d006280:	254affff 	addiu	t2,t2,-1
9d006284:	1540fffd 	bnez	t2,9d00627c <_dinit_clear>
9d006288:	25290001 	addiu	t1,t1,1

9d00628c <_dinit_end>:
9d00628c:	25080003 	addiu	t0,t0,3
9d006290:	240afffc 	li	t2,-4
9d006294:	01484024 	and	t0,t2,t0
9d006298:	8d090000 	lw	t1,0(t0)
9d00629c:	1520ffe7 	bnez	t1,9d00623c <_dinit_init+0x10>
9d0062a0:	00000000 	nop
9d0062a4:	0060f825 	move	ra,v1
9d0062a8:	03e00008 	jr	ra
9d0062ac:	00000000 	nop
9d0062b0:	00000000 	nop

Disassembly of section .text.atoi:

9d0062b4 <atoi>:
9d0062b4:	24050020 	li	a1,32
9d0062b8:	80820000 	lb	v0,0(a0)
9d0062bc:	1045000e 	beq	v0,a1,9d0062f8 <atoi+0x44>
9d0062c0:	2443fff7 	addiu	v1,v0,-9
9d0062c4:	2c630005 	sltiu	v1,v1,5
9d0062c8:	5460fffb 	bnezl	v1,9d0062b8 <atoi+0x4>
9d0062cc:	24840001 	addiu	a0,a0,1
9d0062d0:	2403002b 	li	v1,43
9d0062d4:	1043000a 	beq	v0,v1,9d006300 <atoi+0x4c>
9d0062d8:	2403002d 	li	v1,45
9d0062dc:	14430003 	bne	v0,v1,9d0062ec <atoi+0x38>
9d0062e0:	00002825 	move	a1,zero
9d0062e4:	24050001 	li	a1,1
9d0062e8:	24840001 	addiu	a0,a0,1
9d0062ec:	00001025 	move	v0,zero
9d0062f0:	10000007 	b	9d006310 <atoi+0x5c>
9d0062f4:	2407000a 	li	a3,10
9d0062f8:	1000ffef 	b	9d0062b8 <atoi+0x4>
9d0062fc:	24840001 	addiu	a0,a0,1
9d006300:	1000fff9 	b	9d0062e8 <atoi+0x34>
9d006304:	00002825 	move	a1,zero
9d006308:	24840001 	addiu	a0,a0,1
9d00630c:	00431023 	subu	v0,v0,v1
9d006310:	80830000 	lb	v1,0(a0)
9d006314:	2463ffd0 	addiu	v1,v1,-48
9d006318:	2c66000a 	sltiu	a2,v1,10
9d00631c:	54c0fffa 	bnezl	a2,9d006308 <atoi+0x54>
9d006320:	70471002 	mul	v0,v0,a3
9d006324:	50a00001 	beqzl	a1,9d00632c <atoi+0x78>
9d006328:	00021023 	negu	v0,v0
9d00632c:	03e00008 	jr	ra
9d006330:	00000000 	nop

Disassembly of section .text.__vsnprintf:

9d006334 <__vsnprintf>:
9d006334:	27bdffc8 	addiu	sp,sp,-56
9d006338:	2403ffff 	li	v1,-1
9d00633c:	afa30010 	sw	v1,16(sp)
9d006340:	24030102 	li	v1,258
9d006344:	00a01025 	move	v0,a1
9d006348:	afbf0034 	sw	ra,52(sp)
9d00634c:	00c02825 	move	a1,a2
9d006350:	afa30014 	sw	v1,20(sp)
9d006354:	14800002 	bnez	a0,9d006360 <__vsnprintf+0x2c>
9d006358:	00e03025 	move	a2,a3
9d00635c:	27a4002c 	addiu	a0,sp,44
9d006360:	afa40018 	sw	a0,24(sp)
9d006364:	afa2001c 	sw	v0,28(sp)
9d006368:	10400002 	beqz	v0,9d006374 <__vsnprintf+0x40>
9d00636c:	00001825 	move	v1,zero
9d006370:	2443ffff 	addiu	v1,v0,-1
9d006374:	04410008 	bgez	v0,9d006398 <__vsnprintf+0x64>
9d006378:	afa30020 	sw	v1,32(sp)
9d00637c:	3c02a000 	lui	v0,0xa000
9d006380:	2403004f 	li	v1,79
9d006384:	ac430018 	sw	v1,24(v0)
9d006388:	2402ffff 	li	v0,-1
9d00638c:	8fbf0034 	lw	ra,52(sp)
9d006390:	03e00008 	jr	ra
9d006394:	27bd0038 	addiu	sp,sp,56
9d006398:	afa40028 	sw	a0,40(sp)
9d00639c:	afa40024 	sw	a0,36(sp)
9d0063a0:	a0800000 	sb	zero,0(a0)
9d0063a4:	0f4019d6 	jal	9d006758 <__vfprintf>
9d0063a8:	27a40010 	addiu	a0,sp,16
9d0063ac:	1000fff8 	b	9d006390 <__vsnprintf+0x5c>
9d0063b0:	8fbf0034 	lw	ra,52(sp)

Disassembly of section .text.litodp:

9d0063b4 <__floatsidf>:
9d0063b4:	24050000 00054825 00053825 00043025     ...$%H..%8..%0..
9d0063c4:	10c0000c 00000000 04c10006 00000000     ................
9d0063d4:	3c098000 0005502b 00052823 00063023     ...<+P..#(..#0..
9d0063e4:	00ca3023                                #0..

9d0063e8 <i40>:
9d0063e8:	2407041e 	li	a3,1054
9d0063ec:	70c84020 	clz	t0,a2
9d0063f0:	00e83823 	subu	a3,a3,t0
9d0063f4:	01063004 	sllv	a2,a2,t0

9d0063f8 <i39>:
9d0063f8:	000542c2 	srl	t0,a1,0xb
9d0063fc:	00065540 	sll	t2,a2,0x15
9d006400:	010a4025 	or	t0,t0,t2
9d006404:	00065040 	sll	t2,a2,0x1
9d006408:	000a5302 	srl	t2,t2,0xc
9d00640c:	012a4825 	or	t1,t1,t2
9d006410:	00075500 	sll	t2,a3,0x14
9d006414:	012a4825 	or	t1,t1,t2
9d006418:	00081025 	or	v0,zero,t0
9d00641c:	00091825 	or	v1,zero,t1

9d006420 <E999>:
9d006420:	03e00008 	jr	ra
9d006424:	00000000 	nop
9d006428:	00000000 	nop

Disassembly of section .text.a_clz_64:

9d00642c <a_clz_64>:
9d00642c:	10a00003 	beqz	a1,9d00643c <a_clz_64+0x10>
9d006430:	24030020 	li	v1,32
9d006434:	00a02025 	move	a0,a1
9d006438:	00001825 	move	v1,zero
9d00643c:	00042c02 	srl	a1,a0,0x10
9d006440:	14a00004 	bnez	a1,9d006454 <a_clz_64+0x28>
9d006444:	00051202 	srl	v0,a1,0x8
9d006448:	34630010 	ori	v1,v1,0x10
9d00644c:	00802825 	move	a1,a0
9d006450:	00051202 	srl	v0,a1,0x8
9d006454:	14400004 	bnez	v0,9d006468 <a_clz_64+0x3c>
9d006458:	00022102 	srl	a0,v0,0x4
9d00645c:	34630008 	ori	v1,v1,0x8
9d006460:	00a01025 	move	v0,a1
9d006464:	00022102 	srl	a0,v0,0x4
9d006468:	54800004 	bnezl	a0,9d00647c <a_clz_64+0x50>
9d00646c:	00041082 	srl	v0,a0,0x2
9d006470:	34630004 	ori	v1,v1,0x4
9d006474:	00402025 	move	a0,v0
9d006478:	00041082 	srl	v0,a0,0x2
9d00647c:	54400004 	bnezl	v0,9d006490 <a_clz_64+0x64>
9d006480:	00021042 	srl	v0,v0,0x1
9d006484:	34630002 	ori	v1,v1,0x2
9d006488:	00801025 	move	v0,a0
9d00648c:	00021042 	srl	v0,v0,0x1
9d006490:	38420001 	xori	v0,v0,0x1
9d006494:	03e00008 	jr	ra
9d006498:	00431025 	or	v0,v0,v1

Disassembly of section .text.__string_out:

9d00649c <__out>:
9d00649c:	8c820010 	lw	v0,16(a0)
9d0064a0:	27bdffe0 	addiu	sp,sp,-32
9d0064a4:	afb00014 	sw	s0,20(sp)
9d0064a8:	00808025 	move	s0,a0
9d0064ac:	8c840014 	lw	a0,20(a0)
9d0064b0:	afb10018 	sw	s1,24(sp)
9d0064b4:	00c2882b 	sltu	s1,a2,v0
9d0064b8:	0051300a 	movz	a2,v0,s1
9d0064bc:	afbf001c 	sw	ra,28(sp)
9d0064c0:	0f401a03 	jal	9d00680c <memcpy>
9d0064c4:	00c08825 	move	s1,a2
9d0064c8:	8e020014 	lw	v0,20(s0)
9d0064cc:	8e060010 	lw	a2,16(s0)
9d0064d0:	00511021 	addu	v0,v0,s1
9d0064d4:	00d18823 	subu	s1,a2,s1
9d0064d8:	ae110010 	sw	s1,16(s0)
9d0064dc:	ae020014 	sw	v0,20(s0)
9d0064e0:	a0400000 	sb	zero,0(v0)
9d0064e4:	8fbf001c 	lw	ra,28(sp)
9d0064e8:	8fb10018 	lw	s1,24(sp)
9d0064ec:	8fb00014 	lw	s0,20(sp)
9d0064f0:	03e00008 	jr	ra
9d0064f4:	27bd0020 	addiu	sp,sp,32

Disassembly of section .text.__fmt_state:

9d0064f8 <__fmt_state>:
9d0064f8:	3c069d00 	lui	a2,0x9d00
9d0064fc:	00001025 	move	v0,zero
9d006500:	24c669b8 	addiu	a2,a2,27064
9d006504:	00021840 	sll	v1,v0,0x1
9d006508:	00661821 	addu	v1,v1,a2
9d00650c:	80670000 	lb	a3,0(v1)
9d006510:	54e00003 	bnezl	a3,9d006520 <__fmt_state+0x28>
9d006514:	8c850000 	lw	a1,0(a0)
9d006518:	03e00008 	jr	ra
9d00651c:	90620001 	lbu	v0,1(v1)
9d006520:	80a80000 	lb	t0,0(a1)
9d006524:	15070009 	bne	t0,a3,9d00654c <__fmt_state+0x54>
9d006528:	24420001 	addiu	v0,v0,1
9d00652c:	90620001 	lbu	v0,1(v1)
9d006530:	24a50001 	addiu	a1,a1,1
9d006534:	ac850000 	sw	a1,0(a0)
9d006538:	2c43000b 	sltiu	v1,v0,11
9d00653c:	1460fff2 	bnez	v1,9d006508 <__fmt_state+0x10>
9d006540:	00021840 	sll	v1,v0,0x1
9d006544:	03e00008 	jr	ra
9d006548:	00000000 	nop
9d00654c:	1000fffa 	b	9d006538 <__fmt_state+0x40>
9d006550:	304200ff 	andi	v0,v0,0xff

Disassembly of section .text.main_entry:

9d006554 <_main_entry>:
9d006554:	3c040000 	lui	a0,0x0
9d006558:	27bdffe8 	addiu	sp,sp,-24
9d00655c:	24840000 	addiu	a0,a0,0
9d006560:	10800003 	beqz	a0,9d006570 <_main_entry+0x1c>
9d006564:	afbf0014 	sw	ra,20(sp)
9d006568:	0080f809 	jalr	a0
9d00656c:	00000000 	nop
9d006570:	30840000 	andi	a0,a0,0x0
9d006574:	30a50000 	andi	a1,a1,0x0
9d006578:	3c089d00 	lui	t0,0x9d00
9d00657c:	250847f0 	addiu	t0,t0,18416
9d006580:	0100f809 	jalr	t0
9d006584:	00000000 	nop

9d006588 <__crt0_exit>:
9d006588:	3c020000 24420000 10400003 00000000     ...<..B$..@.....
9d006598:	0040f809 00000000 1000fff9 00000000     ..@.............

Disassembly of section .text.__pop_float:

9d0065a8 <__pop_float>:
9d0065a8:	28a30080 	slti	v1,a1,128
9d0065ac:	14600010 	bnez	v1,9d0065f0 <__pop_float+0x48>
9d0065b0:	00001025 	move	v0,zero
9d0065b4:	28a20082 	slti	v0,a1,130
9d0065b8:	14400003 	bnez	v0,9d0065c8 <__pop_float+0x20>
9d0065bc:	24030083 	li	v1,131
9d0065c0:	14a3000b 	bne	a1,v1,9d0065f0 <__pop_float+0x48>
9d0065c4:	00001025 	move	v0,zero
9d0065c8:	8cc20000 	lw	v0,0(a2)
9d0065cc:	24420007 	addiu	v0,v0,7
9d0065d0:	7c021004 	ins	v0,zero,0x0,0x3
9d0065d4:	24430008 	addiu	v1,v0,8
9d0065d8:	acc30000 	sw	v1,0(a2)
9d0065dc:	8c430004 	lw	v1,4(v0)
9d0065e0:	8c420000 	lw	v0,0(v0)
9d0065e4:	ac830004 	sw	v1,4(a0)
9d0065e8:	ac820000 	sw	v0,0(a0)
9d0065ec:	24020001 	li	v0,1
9d0065f0:	03e00008 	jr	ra
9d0065f4:	00000000 	nop

Disassembly of section .text._bootstrap_exception_handler:

9d0065f8 <_bootstrap_exception_handler>:
9d0065f8:	3c020000 	lui	v0,0x0
9d0065fc:	24420000 	addiu	v0,v0,0
9d006600:	10400005 	beqz	v0,9d006618 <_bootstrap_exception_handler+0x20>
9d006604:	3c020000 	lui	v0,0x0
9d006608:	24420000 	addiu	v0,v0,0
9d00660c:	10400003 	beqz	v0,9d00661c <_bootstrap_exception_handler+0x24>
9d006610:	3c029d00 	lui	v0,0x9d00
9d006614:	7000003f 	sdbbp
9d006618:	3c029d00 	lui	v0,0x9d00
9d00661c:	244266d0 	addiu	v0,v0,26320
9d006620:	10400005 	beqz	v0,9d006638 <_bootstrap_exception_handler+0x40>
9d006624:	00000000 	nop
9d006628:	27bdffe8 	addiu	sp,sp,-24
9d00662c:	afbf0014 	sw	ra,20(sp)
9d006630:	0040f809 	jalr	v0
9d006634:	00000000 	nop
9d006638:	1000ffff 	b	9d006638 <_bootstrap_exception_handler+0x40>
9d00663c:	00000000 	nop

Disassembly of section .text._general_exception_handler:

9d006640 <_general_exception_handler>:
9d006640:	3c020000 	lui	v0,0x0
9d006644:	24420000 	addiu	v0,v0,0
9d006648:	10400005 	beqz	v0,9d006660 <_general_exception_handler+0x20>
9d00664c:	3c020000 	lui	v0,0x0
9d006650:	24420000 	addiu	v0,v0,0
9d006654:	10400003 	beqz	v0,9d006664 <_general_exception_handler+0x24>
9d006658:	3c029d00 	lui	v0,0x9d00
9d00665c:	7000003f 	sdbbp
9d006660:	3c029d00 	lui	v0,0x9d00
9d006664:	244266d0 	addiu	v0,v0,26320
9d006668:	10400005 	beqz	v0,9d006680 <_general_exception_handler+0x40>
9d00666c:	00000000 	nop
9d006670:	27bdffe8 	addiu	sp,sp,-24
9d006674:	afbf0014 	sw	ra,20(sp)
9d006678:	0040f809 	jalr	v0
9d00667c:	00000000 	nop
9d006680:	1000ffff 	b	9d006680 <_general_exception_handler+0x40>
9d006684:	00000000 	nop

Disassembly of section .vector_default:

9d006688 <_DefaultInterrupt>:
9d006688:	3c020000 	lui	v0,0x0
9d00668c:	24420000 	addiu	v0,v0,0
9d006690:	10400007 	beqz	v0,9d0066b0 <_DefaultInterrupt+0x28>
9d006694:	3c020000 	lui	v0,0x0
9d006698:	24420000 	addiu	v0,v0,0
9d00669c:	50400005 	beqzl	v0,9d0066b4 <_DefaultInterrupt+0x2c>
9d0066a0:	3c029d00 	lui	v0,0x9d00
9d0066a4:	7000003f 	sdbbp
9d0066a8:	03e00008 	jr	ra
9d0066ac:	00000000 	nop
9d0066b0:	3c029d00 	lui	v0,0x9d00
9d0066b4:	244266d0 	addiu	v0,v0,26320
9d0066b8:	10400003 	beqz	v0,9d0066c8 <_DefaultInterrupt+0x40>
9d0066bc:	00000000 	nop
9d0066c0:	0040f809 	jalr	v0
9d0066c4:	00000000 	nop
9d0066c8:	03e00008 	jr	ra
9d0066cc:	00000000 	nop

Disassembly of section .text:

9d0066d0 <__pic32_software_reset>:
9d0066d0:	41606000 	di
9d0066d4:	000000c0 	ehb
9d0066d8:	3c03aa99 	lui	v1,0xaa99
9d0066dc:	3c02bf81 	lui	v0,0xbf81
9d0066e0:	24636655 	addiu	v1,v1,26197
9d0066e4:	ac40f230 	sw	zero,-3536(v0)
9d0066e8:	ac43f230 	sw	v1,-3536(v0)
9d0066ec:	3c035566 	lui	v1,0x5566
9d0066f0:	346399aa 	ori	v1,v1,0x99aa
9d0066f4:	ac43f230 	sw	v1,-3536(v0)
9d0066f8:	3c02bf81 	lui	v0,0xbf81
9d0066fc:	24030001 	li	v1,1
9d006700:	ac43f618 	sw	v1,-2536(v0)
9d006704:	3c02bf81 	lui	v0,0xbf81
9d006708:	8c42f610 	lw	v0,-2544(v0)
9d00670c:	0b4019b6 	j	9d0066d8 <__pic32_software_reset+0x8>
9d006710:	00000000 	nop

Disassembly of section .text.__sio_sprintf_dfoux:

9d006714 <__sio_sprintf_dfoux>:
9d006714:	27bdffe8 	addiu	sp,sp,-24
9d006718:	afbf0014 	sw	ra,20(sp)
9d00671c:	0f4014cb 	jal	9d00532c <__fmt_d>
9d006720:	00000000 	nop
9d006724:	0f4007ae 	jal	9d001eb8 <__fmt_fp>
9d006728:	00000000 	nop
9d00672c:	0f4016cb 	jal	9d005b2c <__fmt_o>
9d006730:	00000000 	nop
9d006734:	0f4017b8 	jal	9d005ee0 <__fmt_u>
9d006738:	00000000 	nop
9d00673c:	0f4012f9 	jal	9d004be4 <__fmt_x>
9d006740:	00000000 	nop
9d006744:	0f401812 	jal	9d006048 <__fmt_s>
9d006748:	00000000 	nop
9d00674c:	8fbf0014 	lw	ra,20(sp)
9d006750:	03e00008 	jr	ra
9d006754:	27bd0018 	addiu	sp,sp,24

Disassembly of section .text.__vfprintf:

9d006758 <__vfprintf>:
9d006758:	27bdffe0 	addiu	sp,sp,-32
9d00675c:	afb00018 	sw	s0,24(sp)
9d006760:	afa60010 	sw	a2,16(sp)
9d006764:	00808025 	move	s0,a0
9d006768:	afbf001c 	sw	ra,28(sp)
9d00676c:	0f400bb0 	jal	9d002ec0 <__printf_core>
9d006770:	27a60010 	addiu	a2,sp,16
9d006774:	8e030004 	lw	v1,4(s0)
9d006778:	8fbf001c 	lw	ra,28(sp)
9d00677c:	2404ffff 	li	a0,-1
9d006780:	30630010 	andi	v1,v1,0x10
9d006784:	0083100b 	movn	v0,a0,v1
9d006788:	8fb00018 	lw	s0,24(sp)
9d00678c:	03e00008 	jr	ra
9d006790:	27bd0020 	addiu	sp,sp,32

Disassembly of section .text:

9d006794 <__lshrdi3>:
9d006794:	10c00008 	beqz	a2,9d0067b8 <__lshrdi3+0x24>
9d006798:	00801025 	move	v0,a0
9d00679c:	24030020 	li	v1,32
9d0067a0:	00661823 	subu	v1,v1,a2
9d0067a4:	1c600006 	bgtz	v1,9d0067c0 <__lshrdi3+0x2c>
9d0067a8:	00c52006 	srlv	a0,a1,a2
9d0067ac:	00002025 	move	a0,zero
9d0067b0:	00c51006 	srlv	v0,a1,a2
9d0067b4:	00802825 	move	a1,a0
9d0067b8:	03e00008 	jr	ra
9d0067bc:	00a01825 	move	v1,a1
9d0067c0:	00c21006 	srlv	v0,v0,a2
9d0067c4:	00652804 	sllv	a1,a1,v1
9d0067c8:	1000fffa 	b	9d0067b4 <__lshrdi3+0x20>
9d0067cc:	00451025 	or	v0,v0,a1

9d0067d0 <__ashldi3>:
9d0067d0:	10c00008 	beqz	a2,9d0067f4 <__ashldi3+0x24>
9d0067d4:	00801025 	move	v0,a0
9d0067d8:	24040020 	li	a0,32
9d0067dc:	00862023 	subu	a0,a0,a2
9d0067e0:	5c800006 	bgtzl	a0,9d0067fc <__ashldi3+0x2c>
9d0067e4:	00c21804 	sllv	v1,v0,a2
9d0067e8:	00001825 	move	v1,zero
9d0067ec:	00c22804 	sllv	a1,v0,a2
9d0067f0:	00601025 	move	v0,v1
9d0067f4:	03e00008 	jr	ra
9d0067f8:	00a01825 	move	v1,a1
9d0067fc:	00c52804 	sllv	a1,a1,a2
9d006800:	00821006 	srlv	v0,v0,a0
9d006804:	1000fffa 	b	9d0067f0 <__ashldi3+0x20>
9d006808:	00a22825 	or	a1,a1,v0

Disassembly of section .text.memcpy:

9d00680c <memcpy>:
9d00680c:	00801025 	move	v0,a0
9d006810:	00001825 	move	v1,zero
9d006814:	14c30003 	bne	a2,v1,9d006824 <memcpy+0x18>
9d006818:	00a33821 	addu	a3,a1,v1
9d00681c:	03e00008 	jr	ra
9d006820:	00000000 	nop
9d006824:	90e70000 	lbu	a3,0(a3)
9d006828:	00432021 	addu	a0,v0,v1
9d00682c:	24630001 	addiu	v1,v1,1
9d006830:	1000fff8 	b	9d006814 <memcpy+0x8>
9d006834:	a0870000 	sb	a3,0(a0)

Disassembly of section .text.__wrap_sprintf:

9d006838 <_dsprintf_cdeEfFgGnopuxX>:
9d006838:	27bdffe0 	addiu	sp,sp,-32
9d00683c:	afa60028 	sw	a2,40(sp)
9d006840:	27a60028 	addiu	a2,sp,40
9d006844:	afbf001c 	sw	ra,28(sp)
9d006848:	afa7002c 	sw	a3,44(sp)
9d00684c:	0f401a22 	jal	9d006888 <__vsprintf>
9d006850:	afa60010 	sw	a2,16(sp)
9d006854:	8fbf001c 	lw	ra,28(sp)
9d006858:	03e00008 	jr	ra
9d00685c:	27bd0020 	addiu	sp,sp,32

Disassembly of section .text.strcpy:

9d006860 <strcpy>:
9d006860:	27bdffe8 	addiu	sp,sp,-24
9d006864:	afb00010 	sw	s0,16(sp)
9d006868:	afbf0014 	sw	ra,20(sp)
9d00686c:	0f401a35 	jal	9d0068d4 <stpcpy>
9d006870:	00808025 	move	s0,a0
9d006874:	8fbf0014 	lw	ra,20(sp)
9d006878:	02001025 	move	v0,s0
9d00687c:	8fb00010 	lw	s0,16(sp)
9d006880:	03e00008 	jr	ra
9d006884:	27bd0018 	addiu	sp,sp,24

Disassembly of section .text.__vsprintf:

9d006888 <__vsprintf>:
9d006888:	00c03825 	move	a3,a2
9d00688c:	00a03025 	move	a2,a1
9d006890:	3c057fff 	lui	a1,0x7fff
9d006894:	27bdffe8 	addiu	sp,sp,-24
9d006898:	afbf0014 	sw	ra,20(sp)
9d00689c:	0f4018cd 	jal	9d006334 <__vsnprintf>
9d0068a0:	34a5ffff 	ori	a1,a1,0xffff
9d0068a4:	8fbf0014 	lw	ra,20(sp)
9d0068a8:	03e00008 	jr	ra
9d0068ac:	27bd0018 	addiu	sp,sp,24

Disassembly of section .text.memset:

9d0068b0 <memset>:
9d0068b0:	00801025 	move	v0,a0
9d0068b4:	00863021 	addu	a2,a0,a2
9d0068b8:	00801825 	move	v1,a0
9d0068bc:	14660003 	bne	v1,a2,9d0068cc <memset+0x1c>
9d0068c0:	24630001 	addiu	v1,v1,1
9d0068c4:	03e00008 	jr	ra
9d0068c8:	00000000 	nop
9d0068cc:	1000fffb 	b	9d0068bc <memset+0xc>
9d0068d0:	a065ffff 	sb	a1,-1(v1)

Disassembly of section .text.stpcpy:

9d0068d4 <stpcpy>:
9d0068d4:	24a50001 	addiu	a1,a1,1
9d0068d8:	80a3ffff 	lb	v1,-1(a1)
9d0068dc:	00801025 	move	v0,a0
9d0068e0:	24840001 	addiu	a0,a0,1
9d0068e4:	1460fffb 	bnez	v1,9d0068d4 <stpcpy>
9d0068e8:	a083ffff 	sb	v1,-1(a0)
9d0068ec:	03e00008 	jr	ra
9d0068f0:	00000000 	nop

Disassembly of section .dinit:

9d0068f4 <.dinit>:
9d0068f4:	a0000000 	sb	zero,0(zero)
9d0068f8:	00000004 	sllv	zero,zero,zero
9d0068fc:	00000000 	nop
9d006900:	a0000018 	sb	zero,24(zero)
9d006904:	00000004 	sllv	zero,zero,zero
	...
9d006910:	22222222 	addi	v0,s1,8738

Disassembly of section .text.tolower:

9d006914 <tolower>:
9d006914:	2483ffbf 	addiu	v1,a0,-65
9d006918:	2c63001a 	sltiu	v1,v1,26
9d00691c:	10600002 	beqz	v1,9d006928 <tolower+0x14>
9d006920:	00801025 	move	v0,a0
9d006924:	34820020 	ori	v0,a0,0x20
9d006928:	03e00008 	jr	ra
9d00692c:	00000000 	nop

Disassembly of section .text.__tolower_l:

9d006930 <__tolower_l>:
9d006930:	27bdffe8 	addiu	sp,sp,-24
9d006934:	afbf0014 	sw	ra,20(sp)
9d006938:	0f401a45 	jal	9d006914 <tolower>
9d00693c:	00000000 	nop
9d006940:	8fbf0014 	lw	ra,20(sp)
9d006944:	03e00008 	jr	ra
9d006948:	27bd0018 	addiu	sp,sp,24

Disassembly of section .text.toupper:

9d00694c <toupper>:
9d00694c:	2483ff9f 	addiu	v1,a0,-97
9d006950:	2c63001a 	sltiu	v1,v1,26
9d006954:	10600002 	beqz	v1,9d006960 <toupper+0x14>
9d006958:	00801025 	move	v0,a0
9d00695c:	3082005f 	andi	v0,a0,0x5f
9d006960:	03e00008 	jr	ra
9d006964:	00000000 	nop

Disassembly of section .text.__toupper_l:

9d006968 <__toupper_l>:
9d006968:	27bdffe8 	addiu	sp,sp,-24
9d00696c:	afbf0014 	sw	ra,20(sp)
9d006970:	0f401a53 	jal	9d00694c <toupper>
9d006974:	00000000 	nop
9d006978:	8fbf0014 	lw	ra,20(sp)
9d00697c:	03e00008 	jr	ra
9d006980:	27bd0018 	addiu	sp,sp,24

Disassembly of section .text:

9d0069a0 <_nmi_handler>:
9d0069a0:	401a6000 	mfc0	k0,c0_status
9d0069a4:	3c1bffbf 	lui	k1,0xffbf
9d0069a8:	377bffff 	ori	k1,k1,0xffff
9d0069ac:	035bd024 	and	k0,k0,k1
9d0069b0:	409a6000 	mtc0	k0,c0_status
9d0069b4:	42000018 	eret

Disassembly of section .rodata:

9d0069b8 <state_table>:
9d0069b8:	096c0768 906a834c c07aa074 88688000     h.l.L.j.t.z...h.
9d0069c8:	826c8400 00008100                       ..l.....

Disassembly of section .text.strlen:

9d0069d0 <strlen>:
9d0069d0:	00801025 	move	v0,a0
9d0069d4:	80430000 	lb	v1,0(v0)
9d0069d8:	5460fffe 	bnezl	v1,9d0069d4 <strlen+0x4>
9d0069dc:	24420001 	addiu	v0,v0,1
9d0069e0:	03e00008 	jr	ra
9d0069e4:	00441023 	subu	v0,v0,a0

Disassembly of section .text._on_reset:

9d0069e8 <_on_reset>:
9d0069e8:	03e00008 	jr	ra
9d0069ec:	00000000 	nop

Disassembly of section .text._on_bootstrap:

9d0069f0 <_on_bootstrap>:
9d0069f0:	03e00008 	jr	ra
9d0069f4:	00000000 	nop

Disassembly of section .text.__dummy_fmt3:

9d0069f8 <__dummy_fmt3>:
9d0069f8:	03e00008 	jr	ra
9d0069fc:	00001025 	move	v0,zero

Disassembly of section .text.__dummy_fmt4:

9d006a00 <__fmt_a>:
9d006a00:	03e00008 	jr	ra
9d006a04:	00001025 	move	v0,zero

Disassembly of section .text.__dummy_fmts:

9d006a08 <__dummy_fmts>:
9d006a08:	03e00008 	jr	ra
9d006a0c:	00001025 	move	v0,zero
